

Microchip MPLAB XC8 Assembler V2.41 build 20230208172133 
                                                                                               Thu Nov 30 19:39:24 2023

Microchip MPLAB XC8 C Compiler v2.41 (Free license) build 20230208172133 Og1 
     1                           	processor	18F4620
     2                           	fnconf	rparam,??,?,0
     3                           	pagewidth 120
     4                           	opt	flic
     5                           	psect	idataCOMRAM,global,class=CODE,delta=1,noexec
     6                           	psect	idataBANK0,global,class=CODE,delta=1,noexec
     7                           	psect	smallconst,global,reloc=2,class=SMALLCONST,delta=1,noexec
     8                           	psect	cinit,global,reloc=2,class=CODE,delta=1
     9                           	psect	bssCOMRAM,global,class=COMRAM,space=1,delta=1,lowdata,noexec
    10                           	psect	dataCOMRAM,global,class=COMRAM,space=1,delta=1,lowdata,noexec
    11                           	psect	dataBANK0,global,class=BANK0,space=1,delta=1,lowdata,noexec
    12                           	psect	cstackBANK0,global,class=BANK0,space=1,delta=1,lowdata,noexec
    13                           	psect	cstackCOMRAM,global,class=COMRAM,space=1,delta=1,lowdata,noexec
    14                           	psect	text0,global,reloc=2,class=CODE,delta=1
    15                           	psect	text1,global,reloc=2,class=CODE,delta=1
    16                           	psect	text2,global,reloc=2,class=CODE,delta=1
    17                           	psect	text3,global,reloc=2,class=CODE,delta=1
    18                           	psect	text4,global,reloc=2,class=CODE,delta=1
    19                           	psect	text5,global,reloc=2,class=CODE,delta=1
    20                           	psect	text6,global,reloc=2,class=CODE,delta=1
    21                           	psect	text7,global,reloc=2,class=CODE,delta=1,inline
    22                           	psect	text8,global,reloc=2,class=CODE,delta=1,inline
    23                           	psect	text9,global,reloc=2,class=CODE,delta=1,inline
    24                           	psect	intcode,global,reloc=2,class=CODE,delta=1
    25                           	psect	intcode_body,global,reloc=2,class=CODE,delta=1
    26                           	psect	text11,global,reloc=2,class=CODE,delta=1
    27                           	psect	text12,global,reloc=2,class=CODE,delta=1
    28                           	psect	text13,global,reloc=2,class=CODE,delta=1
    29                           	psect	text14,global,reloc=2,class=CODE,delta=1
    30                           	psect	text15,global,reloc=2,class=CODE,delta=1
    31                           	psect	text16,global,reloc=2,class=CODE,delta=1
    32                           	psect	text17,global,reloc=2,class=CODE,delta=1
    33                           	psect	text18,global,reloc=2,class=CODE,delta=1
    34                           	psect	text19,global,reloc=2,class=CODE,delta=1
    35                           	psect	text20,global,reloc=2,class=CODE,delta=1
    36                           	psect	text21,global,reloc=2,class=CODE,delta=1
    37                           	psect	text22,global,reloc=2,class=CODE,delta=1
    38                           	psect	intsave_regs,global,class=BIGRAM,space=1,delta=1,noexec
    39                           	psect	text23,global,reloc=2,class=CODE,delta=1
    40                           	psect	rparam,global,class=COMRAM,space=1,delta=1,noexec
    41                           	psect	temp,global,ovrld,common,class=COMRAM,space=1,delta=1
    42                           	psect	config,global,abs,ovrld,class=CONFIG,space=4,delta=1,noexec
    43   000000                     
    44                           ; Generated 23/03/2023 GMT
    45                           ; 
    46                           ; Copyright © 2023, Microchip Technology Inc. and its subsidiaries ("Microchip")
    47                           ; All rights reserved.
    48                           ; 
    49                           ; This software is developed by Microchip Technology Inc. and its subsidiaries ("Microch
      +                          ip").
    50                           ; 
    51                           ; Redistribution and use in source and binary forms, with or without modification, are
    52                           ; permitted provided that the following conditions are met:
    53                           ; 
    54                           ;     1. Redistributions of source code must retain the above copyright notice, this lis
      +                          t of
    55                           ;        conditions and the following disclaimer.
    56                           ; 
    57                           ;     2. Redistributions in binary form must reproduce the above copyright notice, this 
      +                          list
    58                           ;        of conditions and the following disclaimer in the documentation and/or other
    59                           ;        materials provided with the distribution. Publication is not required when
    60                           ;        this file is used in an embedded application.
    61                           ; 
    62                           ;     3. Microchip's name may not be used to endorse or promote products derived from th
      +                          is
    63                           ;        software without specific prior written permission.
    64                           ; 
    65                           ; THIS SOFTWARE IS PROVIDED BY MICROCHIP "AS IS" AND ANY EXPRESS OR IMPLIED WARRANTIES,
    66                           ; INCLUDING, BUT NOT LIMITED TO, THE IMPLIED WARRANTIES OF MERCHANTABILITY AND FITNESS F
      +                          OR
    67                           ; PURPOSE ARE DISCLAIMED.  IN NO EVENT SHALL MICROCHIP BE LIABLE FOR ANY DIRECT, INDIREC
      +                          T,
    68                           ; INCIDENTAL, SPECIAL, EXEMPLARY, OR CONSEQUENTIAL DAMAGES (INCLUDING BUT NOT LIMITED TO
    69                           ; PROCUREMENT OF SUBSTITUTE GOODS OR SERVICES; LOSS OF USE, DATA OR PROFITS; OR BUSINESS
    70                           ; INTERRUPTION) HOWSOEVER CAUSED AND ON ANY THEORY OF LIABILITY, WHETHER IN CONTRACT, ST
      +                          RICT
    71                           ; LIABILITY, OR TORT (INCLUDING NEGLIGENCE OR OTHERWISE) ARISING IN ANY WAY OUT OF THE U
      +                          SE OF
    72                           ; THIS SOFTWARE, EVEN IF ADVISED OF THE POSSIBILITY OF SUCH DAMAGE.
    73                           ; 
    74                           ; 
    75                           ; Code-generator required, PIC18F4620 Definitions
    76                           ; 
    77                           ; SFR Addresses
    78   000000                     
    79                           	psect	idataCOMRAM
    80   001A60                     __pidataCOMRAM:
    81                           	callstack 0
    82                           
    83                           ;initializer for _lat_registers
    84   001A60  89                 	db	137
    85   001A61  0F                 	db	15
    86   001A62  8A                 	db	138
    87   001A63  0F                 	db	15
    88   001A64  8B                 	db	139
    89   001A65  0F                 	db	15
    90   001A66  8C                 	db	140
    91   001A67  0F                 	db	15
    92   001A68  8D                 	db	141
    93   001A69  0F                 	db	15
    94                           
    95                           ;initializer for _tris_registers
    96   001A6A  92                 	db	146
    97   001A6B  0F                 	db	15
    98   001A6C  93                 	db	147
    99   001A6D  0F                 	db	15
   100   001A6E  94                 	db	148
   101   001A6F  0F                 	db	15
   102   001A70  95                 	db	149
   103   001A71  0F                 	db	15
   104   001A72  96                 	db	150
   105   001A73  0F                 	db	15
   106                           
   107                           ;initializer for _RB7_Flag
   108   001A74  01                 	db	1
   109                           
   110                           ;initializer for _RB6_Flag
   111   001A75  01                 	db	1
   112                           
   113                           ;initializer for _RB5_Flag
   114   001A76  01                 	db	1
   115                           
   116                           ;initializer for _RB4_Flag
   117   001A77  01                 	db	1
   118                           
   119                           ;initializer for _Timer1_obj
   120   001A78  2E                 	db	low _Timer0_Defualt_Hundeler
   121   001A79  1A                 	db	high _Timer0_Defualt_Hundeler
   122   001A7A  00                 	db	0
   123   001A7B  00                 	db	0
   124   001A7C  04                 	db	4
   125   001A7D  D8F0               	dw	55536
   126   001A7F  00                 	db	0
   127                           
   128                           ;initializer for _lcd_1
   129   001A80  02                 	db	2
   130   001A81  0A                 	db	10
   131   001A82  12                 	db	18
   132   001A83  1A                 	db	26
   133   001A84  22                 	db	34
   134   001A85  2A                 	db	42
   135                           
   136                           ;initializer for _led2
   137   001A86  12                 	db	18
   138                           
   139                           ;initializer for _led1
   140   001A87  02                 	db	2
   141                           
   142                           	psect	idataBANK0
   143   001942                     __pidataBANK0:
   144                           	callstack 0
   145                           
   146                           ;initializer for _keypad_btn_values
   147   001942  37                 	db	55
   148   001943  00                 	db	0
   149   001944  00                 	db	0
   150   001945  38                 	db	56
   151   001946  00                 	db	0
   152   001947  00                 	db	0
   153   001948  39                 	db	57
   154   001949  00                 	db	0
   155   00194A  00                 	db	0
   156   00194B  2F                 	db	47
   157   00194C  00                 	db	0
   158   00194D  00                 	db	0
   159   00194E  34                 	db	52
   160   00194F  00                 	db	0
   161   001950  00                 	db	0
   162   001951  35                 	db	53
   163   001952  00                 	db	0
   164   001953  00                 	db	0
   165   001954  36                 	db	54
   166   001955  00                 	db	0
   167   001956  00                 	db	0
   168   001957  2A                 	db	42
   169   001958  00                 	db	0
   170   001959  00                 	db	0
   171   00195A  31                 	db	49
   172   00195B  00                 	db	0
   173   00195C  00                 	db	0
   174   00195D  32                 	db	50
   175   00195E  00                 	db	0
   176   00195F  00                 	db	0
   177   001960  33                 	db	51
   178   001961  00                 	db	0
   179   001962  00                 	db	0
   180   001963  2B                 	db	43
   181   001964  00                 	db	0
   182   001965  00                 	db	0
   183   001966  23                 	db	35
   184   001967  00                 	db	0
   185   001968  00                 	db	0
   186   001969  30                 	db	48
   187   00196A  00                 	db	0
   188   00196B  00                 	db	0
   189   00196C  3D                 	db	61
   190   00196D  00                 	db	0
   191   00196E  00                 	db	0
   192   00196F  2D                 	db	45
   193   001970  00                 	db	0
   194   001971  00                 	db	0
   195                           
   196                           ;initializer for _port_registers
   197   001972  80                 	db	128
   198   001973  0F                 	db	15
   199   001974  81                 	db	129
   200   001975  0F                 	db	15
   201   001976  82                 	db	130
   202   001977  0F                 	db	15
   203   001978  83                 	db	131
   204   001979  0F                 	db	15
   205   00197A  84                 	db	132
   206   00197B  0F                 	db	15
   207                           
   208                           ;initializer for _lcd_2
   209   00197C  32                 	db	50
   210   00197D  3A                 	db	58
   211   00197E  03                 	db	3
   212   00197F  0B                 	db	11
   213   001980  13                 	db	19
   214   001981  1B                 	db	27
   215   001982  23                 	db	35
   216   001983  2B                 	db	43
   217   001984  33                 	db	51
   218   001985  3B                 	db	59
   219   000000                     _TMR0L	set	4054
   220   000000                     _TMR0H	set	4055
   221   000000                     _INTCON2bits	set	4081
   222   000000                     _EECON2	set	4007
   223   000000                     _ADCON1bits	set	4033
   224   000000                     _ADRESL	set	4035
   225   000000                     _ADRESH	set	4036
   226   000000                     _INTCONbits	set	4082
   227   000000                     _TRISD	set	3989
   228   000000                     _TRISC	set	3988
   229   000000                     _TRISB	set	3987
   230   000000                     _TRISE	set	3990
   231   000000                     _PORTBbits	set	3969
   232   000000                     _PIE1bits	set	3997
   233   000000                     _ADCON2bits	set	4032
   234   000000                     _ADCON0bits	set	4034
   235   000000                     _PORTE	set	3972
   236   000000                     _PORTD	set	3971
   237   000000                     _PORTC	set	3970
   238   000000                     _PORTB	set	3969
   239   000000                     _PORTA	set	3968
   240   000000                     _LATA	set	3977
   241   000000                     _TRISA	set	3986
   242   000000                     _EECON1bits	set	4006
   243   000000                     _EEDATA	set	4008
   244   000000                     _EEADR	set	4009
   245   000000                     _EEADRH	set	4010
   246   000000                     _PIR1bits	set	3998
   247   000000                     _T0CONbits	set	4053
   248   000000                     _INTCON3bits	set	4080
   249   000000                     _LATE	set	3981
   250   000000                     _LATD	set	3980
   251   000000                     _LATC	set	3979
   252   000000                     _LATB	set	3978
   253                           
   254                           	psect	smallconst
   255   001000                     __psmallconst:
   256                           	callstack 0
   257   001000  00                 	db	0
   258   001001                     STR_1:
   259   001001  2F                 	db	47
   260   001002  30                 	db	48	;'0'
   261   001003  00                 	db	0
   262   001004                     STR_2:
   263   001004  25                 	db	37
   264   001005  69                 	db	105	;'i'
   265   001006  00                 	db	0
   266   001007  00                 	db	0	; dummy byte at the end
   267   000000                     
   268                           ; #config settings
   269                           
   270                           	psect	cinit
   271   0018EC                     __pcinit:
   272                           	callstack 0
   273   0018EC                     start_initialization:
   274                           	callstack 0
   275   0018EC                     __initialization:
   276                           	callstack 0
   277                           
   278                           ; Initialize objects allocated to BANK0 (68 bytes)
   279                           ; load TBLPTR registers with __pidataBANK0
   280   0018EC  0E42               	movlw	low __pidataBANK0
   281   0018EE  6EF6               	movwf	tblptrl,c
   282   0018F0  0E19               	movlw	high __pidataBANK0
   283   0018F2  6EF7               	movwf	tblptrh,c
   284   0018F4  0E00               	movlw	low (__pidataBANK0 shr (0+16))
   285   0018F6  6EF8               	movwf	tblptru,c
   286   0018F8  EE00  F080         	lfsr	0,__pdataBANK0
   287   0018FC  EE10 F044          	lfsr	1,68
   288   001900                     copy_data0:
   289   001900  0009               	tblrd		*+
   290   001902  CFF5 FFEE          	movff	tablat,postinc0
   291   001906  50E5               	movf	postdec1,w,c
   292   001908  50E1               	movf	fsr1l,w,c
   293   00190A  E1FA               	bnz	copy_data0
   294                           
   295                           ; Initialize objects allocated to COMRAM (40 bytes)
   296                           ; load TBLPTR registers with __pidataCOMRAM
   297   00190C  0E60               	movlw	low __pidataCOMRAM
   298   00190E  6EF6               	movwf	tblptrl,c
   299   001910  0E1A               	movlw	high __pidataCOMRAM
   300   001912  6EF7               	movwf	tblptrh,c
   301   001914  0E00               	movlw	low (__pidataCOMRAM shr (0+16))
   302   001916  6EF8               	movwf	tblptru,c
   303   001918  EE00  F02B         	lfsr	0,__pdataCOMRAM
   304   00191C  EE10 F028          	lfsr	1,40
   305   001920                     copy_data1:
   306   001920  0009               	tblrd		*+
   307   001922  CFF5 FFEE          	movff	tablat,postinc0
   308   001926  50E5               	movf	postdec1,w,c
   309   001928  50E1               	movf	fsr1l,w,c
   310   00192A  E1FA               	bnz	copy_data1
   311                           
   312                           ; Clear objects allocated to COMRAM (42 bytes)
   313   00192C  EE00  F001         	lfsr	0,__pbssCOMRAM
   314   001930  0E2A               	movlw	42
   315   001932                     clear_0:
   316   001932  6AEE               	clrf	postinc0,c
   317   001934  06E8               	decf	wreg,f,c
   318   001936  E1FD               	bnz	clear_0
   319   001938                     end_of_initialization:
   320                           	callstack 0
   321   001938                     __end_of__initialization:
   322                           	callstack 0
   323   001938  906E               	bcf	int$flags,0,c	;clear compiler interrupt flag (level 1)
   324   00193A  926E               	bcf	int$flags,1,c	;clear compiler interrupt flag (level 2)
   325   00193C  0100               	movlb	0
   326   00193E  EFFD  F00C         	goto	_main	;jump to C main() function
   327                           
   328                           	psect	bssCOMRAM
   329   000001                     __pbssCOMRAM:
   330                           	callstack 0
   331   000001                     	ds	6
   332   000007                     _timer0_preload:
   333                           	callstack 0
   334   000007                     	ds	2
   335   000009                     _TMR0_Interrupt_Hundeler:
   336                           	callstack 0
   337   000009                     	ds	2
   338   00000B                     _RB7_Interrupt_Handular_LOW:
   339                           	callstack 0
   340   00000B                     	ds	2
   341   00000D                     _RB7_Interrupt_Handular_HIGH:
   342                           	callstack 0
   343   00000D                     	ds	2
   344   00000F                     _RB6_Interrupt_Handular_LOW:
   345                           	callstack 0
   346   00000F                     	ds	2
   347   000011                     _RB6_Interrupt_Handular_HIGH:
   348                           	callstack 0
   349   000011                     	ds	2
   350   000013                     _RB5_Interrupt_Handular_LOW:
   351                           	callstack 0
   352   000013                     	ds	2
   353   000015                     _RB5_Interrupt_Handular_HIGH:
   354                           	callstack 0
   355   000015                     	ds	2
   356   000017                     _RB4_Interrupt_Handular_LOW:
   357                           	callstack 0
   358   000017                     	ds	2
   359   000019                     _RB4_Interrupt_Handular_HIGH:
   360                           	callstack 0
   361   000019                     	ds	2
   362   00001B                     _INT2_Interrupt_Handular:
   363                           	callstack 0
   364   00001B                     	ds	2
   365   00001D                     _INT1_Interrupt_Handular:
   366                           	callstack 0
   367   00001D                     	ds	2
   368   00001F                     _INT0_Interrupt_Handular:
   369                           	callstack 0
   370   00001F                     	ds	2
   371   000021                     _ADC_Interrupt_Handular:
   372                           	callstack 0
   373   000021                     	ds	2
   374   000023                     _square_25hz_waveform:
   375                           	callstack 0
   376   000023                     	ds	1
   377   000024                     Relay_Turn_OFF@F3052:
   378                           	callstack 0
   379   000024                     	ds	1
   380   000025                     Relay_Turn_ON@F3047:
   381                           	callstack 0
   382   000025                     	ds	1
   383   000026                     Relay_Initialize@F3042:
   384                           	callstack 0
   385   000026                     	ds	1
   386   000027                     led_toggle@F3063:
   387                           	callstack 0
   388   000027                     	ds	1
   389   000028                     led_turn_off@F3058:
   390                           	callstack 0
   391   000028                     	ds	1
   392   000029                     led_turn_on@F3053:
   393                           	callstack 0
   394   000029                     	ds	1
   395   00002A                     led_initialize@F3048:
   396                           	callstack 0
   397   00002A                     	ds	1
   398                           
   399                           	psect	dataCOMRAM
   400   00002B                     __pdataCOMRAM:
   401                           	callstack 0
   402   00002B                     _lat_registers:
   403                           	callstack 0
   404   00002B                     	ds	10
   405   000035                     _tris_registers:
   406                           	callstack 0
   407   000035                     	ds	10
   408   00003F                     _RB7_Flag:
   409                           	callstack 0
   410   00003F                     	ds	1
   411   000040                     _RB6_Flag:
   412                           	callstack 0
   413   000040                     	ds	1
   414   000041                     _RB5_Flag:
   415                           	callstack 0
   416   000041                     	ds	1
   417   000042                     _RB4_Flag:
   418                           	callstack 0
   419   000042                     	ds	1
   420   000043                     _Timer1_obj:
   421                           	callstack 0
   422   000043                     	ds	8
   423   00004B                     _lcd_1:
   424                           	callstack 0
   425   00004B                     	ds	6
   426   000051                     _led2:
   427                           	callstack 0
   428   000051                     	ds	1
   429   000052                     _led1:
   430                           	callstack 0
   431   000052                     	ds	1
   432                           
   433                           	psect	dataBANK0
   434   000080                     __pdataBANK0:
   435                           	callstack 0
   436   000080                     _keypad_btn_values:
   437                           	callstack 0
   438   000080                     	ds	48
   439   0000B0                     _port_registers:
   440                           	callstack 0
   441   0000B0                     	ds	10
   442   0000BA                     _lcd_2:
   443                           	callstack 0
   444   0000BA                     	ds	10
   445                           
   446                           	psect	cstackBANK0
   447   0000C4                     __pcstackBANK0:
   448                           	callstack 0
   449   0000C4                     gpio_pin_intialize@pin_config:
   450                           	callstack 0
   451                           
   452                           ; 2 bytes @ 0x0
   453   0000C4                     	ds	2
   454   0000C6                     ??_gpio_pin_intialize:
   455                           
   456                           ; 1 bytes @ 0x2
   457   0000C6                     	ds	1
   458   0000C7                     gpio_pin_intialize@ret:
   459                           	callstack 0
   460                           
   461                           ; 1 bytes @ 0x3
   462   0000C7                     	ds	1
   463   0000C8                     led_initialize@led:
   464                           	callstack 0
   465                           
   466                           ; 2 bytes @ 0x4
   467   0000C8                     	ds	2
   468   0000CA                     ??_led_initialize:
   469                           
   470                           ; 1 bytes @ 0x6
   471   0000CA                     	ds	1
   472   0000CB                     led_initialize@ret:
   473                           	callstack 0
   474                           
   475                           ; 1 bytes @ 0x7
   476   0000CB                     	ds	1
   477   0000CC                     led_initialize@pin_obj:
   478                           	callstack 0
   479                           
   480                           ; 1 bytes @ 0x8
   481   0000CC                     	ds	1
   482                           
   483                           	psect	cstackCOMRAM
   484   000053                     __pcstackCOMRAM:
   485                           	callstack 0
   486   000053                     RB4_ISR@source:
   487                           	callstack 0
   488   000053                     RB5_ISR@source:
   489                           	callstack 0
   490   000053                     RB6_ISR@source:
   491                           	callstack 0
   492   000053                     RB7_ISR@source:
   493                           	callstack 0
   494   000053                     gpio_pin_toggle_logic@pin_config:
   495                           	callstack 0
   496                           
   497                           ; 2 bytes @ 0x0
   498   000053                     	ds	2
   499   000055                     ??_gpio_pin_toggle_logic:
   500                           
   501                           ; 1 bytes @ 0x2
   502   000055                     	ds	5
   503   00005A                     led_toggle@led:
   504                           	callstack 0
   505                           
   506                           ; 2 bytes @ 0x7
   507   00005A                     	ds	2
   508   00005C                     ??_led_toggle:
   509                           
   510                           ; 1 bytes @ 0x9
   511   00005C                     	ds	1
   512   00005D                     led_toggle@pin_obj:
   513                           	callstack 0
   514                           
   515                           ; 1 bytes @ 0xA
   516   00005D                     	ds	1
   517   00005E                     ??_Interrupt_Manager:
   518                           
   519                           ; 1 bytes @ 0xB
   520   00005E                     	ds	6
   521   000064                     gpio_pin_direction_intialize@pin_config:
   522                           	callstack 0
   523   000064                     gpio_pin_write_logic@pin_config:
   524                           	callstack 0
   525   000064                     Timer0_Prescaler_Config@timer1:
   526                           	callstack 0
   527   000064                     Timer0_Mode_Select@timer1:
   528                           	callstack 0
   529   000064                     Timer0_Register_Size@timer1:
   530                           	callstack 0
   531                           
   532                           ; 2 bytes @ 0x11
   533   000064                     	ds	2
   534   000066                     ??_gpio_pin_direction_intialize:
   535   000066                     ??_Timer0_Prescaler_Config:
   536   000066                     gpio_pin_write_logic@logic:
   537                           	callstack 0
   538                           
   539                           ; 1 bytes @ 0x13
   540   000066                     	ds	1
   541   000067                     ??_gpio_pin_write_logic:
   542   000067                     Timer0_Init@timer1:
   543                           	callstack 0
   544                           
   545                           ; 2 bytes @ 0x14
   546   000067                     	ds	2
   547   000069                     ??_Timer0_Init:
   548                           
   549                           ; 1 bytes @ 0x16
   550   000069                     	ds	2
   551   00006B                     Timer0_Init@ret:
   552                           	callstack 0
   553                           
   554                           ; 1 bytes @ 0x18
   555   00006B                     	ds	1
   556   00006C                     gpio_pin_direction_intialize@ret:
   557                           	callstack 0
   558                           
   559                           ; 1 bytes @ 0x19
   560   00006C                     	ds	1
   561   00006D                     gpio_pin_write_logic@ret:
   562                           	callstack 0
   563                           
   564                           ; 1 bytes @ 0x1A
   565   00006D                     	ds	1
   566   00006E                     
   567                           ; 1 bytes @ 0x1B
   568 ;;
   569 ;;Main: autosize = 0, tempsize = 0, incstack = 0, save=0
   570 ;;
   571 ;; *************** function _main *****************
   572 ;; Defined at:
   573 ;;		line 29 in file "application.c"
   574 ;; Parameters:    Size  Location     Type
   575 ;;		None
   576 ;; Auto vars:     Size  Location     Type
   577 ;;  ret             1    0        unsigned char 
   578 ;; Return value:  Size  Location     Type
   579 ;;                  2  900[None  ] int 
   580 ;; Registers used:
   581 ;;		wreg, fsr2l, fsr2h, status,2, status,0, prodl, prodh, cstack
   582 ;; Tracked objects:
   583 ;;		On entry : 0/0
   584 ;;		On exit  : 0/0
   585 ;;		Unchanged: 0/0
   586 ;; Data sizes:     COMRAM   BANK0   BANK1   BANK2   BANK3   BANK4   BANK5   BANK6   BANK7   BANK8   BANK9  BANK10  BANK1
      +1  BANK12  BANK13  BANK14  BANK15
   587 ;;      Params:         0       0       0       0       0       0       0       0       0       0       0       0       
      +0       0       0       0       0
   588 ;;      Locals:         0       0       0       0       0       0       0       0       0       0       0       0       
      +0       0       0       0       0
   589 ;;      Temps:          0       0       0       0       0       0       0       0       0       0       0       0       
      +0       0       0       0       0
   590 ;;      Totals:         0       0       0       0       0       0       0       0       0       0       0       0       
      +0       0       0       0       0
   591 ;;Total ram usage:        0 bytes
   592 ;; Hardware stack levels required when called: 8
   593 ;; This function calls:
   594 ;;		_Timer0_Init
   595 ;;		_application_initialize
   596 ;;		_led_initialize
   597 ;; This function is called by:
   598 ;;		Startup code after reset
   599 ;; This function uses a non-reentrant model
   600 ;;
   601                           
   602                           	psect	text0
   603   0019FA                     __ptext0:
   604                           	callstack 0
   605   0019FA                     _main:
   606                           	callstack 23
   607   0019FA                     
   608                           ;application.c: 32: application_initialize();
   609   0019FA  EC80  F00D         	call	_application_initialize	;wreg free
   610   0019FE  0E43               	movlw	low _Timer1_obj
   611   001A00  6E67               	movwf	Timer0_Init@timer1^0,c
   612   001A02  0E00               	movlw	high _Timer1_obj
   613   001A04  6E68               	movwf	(Timer0_Init@timer1+1)^0,c
   614   001A06  ECBF  F00A         	call	_Timer0_Init	;wreg free
   615   001A0A  0E52               	movlw	low _led1
   616   001A0C  0100               	movlb	0	; () banked
   617   001A0E  6FC8               	movwf	led_initialize@led& (0+255),b
   618   001A10  0E00               	movlw	high _led1
   619   001A12  6FC9               	movwf	(led_initialize@led+1)& (0+255),b
   620   001A14  EC5A  F00B         	call	_led_initialize	;wreg free
   621   001A18  0E51               	movlw	low _led2
   622   001A1A  0100               	movlb	0	; () banked
   623   001A1C  6FC8               	movwf	led_initialize@led& (0+255),b
   624   001A1E  0E00               	movlw	high _led2
   625   001A20  6FC9               	movwf	(led_initialize@led+1)& (0+255),b
   626   001A22  EC5A  F00B         	call	_led_initialize	;wreg free
   627   001A26                     l901:
   628   001A26  EF13  F00D         	goto	l901
   629   001A2A  EF07  F000         	goto	start
   630   001A2E                     __end_of_main:
   631                           	callstack 0
   632                           
   633 ;; *************** function _led_initialize *****************
   634 ;; Defined at:
   635 ;;		line 7 in file "ECU_Layer/LED/ecu_led.c"
   636 ;; Parameters:    Size  Location     Type
   637 ;;  led             2    4[BANK0 ] PTR const struct .
   638 ;;		 -> led2(1), led1(1), 
   639 ;; Auto vars:     Size  Location     Type
   640 ;;  pin_obj         1    8[BANK0 ] struct .
   641 ;;  ret             1    7[BANK0 ] unsigned char 
   642 ;; Return value:  Size  Location     Type
   643 ;;                  1    wreg      unsigned char 
   644 ;; Registers used:
   645 ;;		wreg, fsr2l, fsr2h, status,2, status,0, prodl, prodh, cstack
   646 ;; Tracked objects:
   647 ;;		On entry : 0/0
   648 ;;		On exit  : 0/0
   649 ;;		Unchanged: 0/0
   650 ;; Data sizes:     COMRAM   BANK0   BANK1   BANK2   BANK3   BANK4   BANK5   BANK6   BANK7   BANK8   BANK9  BANK10  BANK1
      +1  BANK12  BANK13  BANK14  BANK15
   651 ;;      Params:         0       2       0       0       0       0       0       0       0       0       0       0       
      +0       0       0       0       0
   652 ;;      Locals:         0       2       0       0       0       0       0       0       0       0       0       0       
      +0       0       0       0       0
   653 ;;      Temps:          0       1       0       0       0       0       0       0       0       0       0       0       
      +0       0       0       0       0
   654 ;;      Totals:         0       5       0       0       0       0       0       0       0       0       0       0       
      +0       0       0       0       0
   655 ;;Total ram usage:        5 bytes
   656 ;; Hardware stack levels used: 1
   657 ;; Hardware stack levels required when called: 7
   658 ;; This function calls:
   659 ;;		_gpio_pin_intialize
   660 ;; This function is called by:
   661 ;;		_main
   662 ;; This function uses a non-reentrant model
   663 ;;
   664                           
   665                           	psect	text1
   666   0016B4                     __ptext1:
   667                           	callstack 0
   668   0016B4                     _led_initialize:
   669                           	callstack 23
   670   0016B4                     
   671                           ;ECU_Layer/LED/ecu_led.c: 9: Std_ReturnType ret = (Std_ReturnType)0x01;
   672   0016B4  0E01               	movlw	1
   673   0016B6  0100               	movlb	0	; () banked
   674   0016B8  6FCB               	movwf	led_initialize@ret& (0+255),b
   675   0016BA                     
   676                           ; BSR set to: 0
   677                           ;ECU_Layer/LED/ecu_led.c: 10: if(led == ((void*)0)){
   678   0016BA  51C8               	movf	led_initialize@led& (0+255),w,b
   679   0016BC  11C9               	iorwf	(led_initialize@led+1)& (0+255),w,b
   680   0016BE  A4D8               	btfss	status,2,c
   681   0016C0  EF64  F00B         	goto	u3741
   682   0016C4  EF66  F00B         	goto	u3740
   683   0016C8                     u3741:
   684   0016C8  EF6A  F00B         	goto	l249
   685   0016CC                     u3740:
   686   0016CC                     
   687                           ; BSR set to: 0
   688                           ;ECU_Layer/LED/ecu_led.c: 11:    ret = (Std_ReturnType)0x00;
   689   0016CC  0E00               	movlw	0
   690   0016CE  6FCB               	movwf	led_initialize@ret& (0+255),b
   691                           
   692                           ;ECU_Layer/LED/ecu_led.c: 12: }
   693   0016D0  EF98  F00B         	goto	l4591
   694   0016D4                     l249:
   695                           
   696                           ; BSR set to: 0
   697                           ;ECU_Layer/LED/ecu_led.c: 14:     pin_config_t pin_obj = {.port = led->Port_Name,
   698   0016D4  C02A  F0CC         	movff	led_initialize@F3048,led_initialize@pin_obj
   699   0016D8                     
   700                           ; BSR set to: 0
   701   0016D8  C0C8  FFD9         	movff	led_initialize@led,fsr2l
   702   0016DC  C0C9  FFDA         	movff	led_initialize@led+1,fsr2h
   703   0016E0  50DF               	movf	223,w,c
   704   0016E2  0B0F               	andlw	15
   705   0016E4  6FCA               	movwf	??_led_initialize& (0+255),b
   706   0016E6  51CC               	movf	led_initialize@pin_obj& (0+255),w,b
   707   0016E8  19CA               	xorwf	??_led_initialize& (0+255),w,b
   708   0016EA  0BF8               	andlw	-8
   709   0016EC  19CA               	xorwf	??_led_initialize& (0+255),w,b
   710   0016EE  6FCC               	movwf	led_initialize@pin_obj& (0+255),b
   711   0016F0  C0C8  FFD9         	movff	led_initialize@led,fsr2l
   712   0016F4  C0C9  FFDA         	movff	led_initialize@led+1,fsr2h
   713   0016F8  38DF               	swapf	223,w,c
   714   0016FA  0B07               	andlw	7
   715   0016FC  6FCA               	movwf	??_led_initialize& (0+255),b
   716   0016FE  47CA               	rlncf	??_led_initialize& (0+255),f,b
   717   001700  47CA               	rlncf	??_led_initialize& (0+255),f,b
   718   001702  47CA               	rlncf	??_led_initialize& (0+255),f,b
   719   001704  51CC               	movf	led_initialize@pin_obj& (0+255),w,b
   720   001706  19CA               	xorwf	??_led_initialize& (0+255),w,b
   721   001708  0BC7               	andlw	-57
   722   00170A  19CA               	xorwf	??_led_initialize& (0+255),w,b
   723   00170C  6FCC               	movwf	led_initialize@pin_obj& (0+255),b
   724   00170E                     
   725                           ; BSR set to: 0
   726   00170E  9DCC               	bcf	led_initialize@pin_obj& (0+255),6,b
   727   001710                     
   728                           ; BSR set to: 0
   729   001710  C0C8  FFD9         	movff	led_initialize@led,fsr2l
   730   001714  C0C9  FFDA         	movff	led_initialize@led+1,fsr2h
   731   001718  AEDF               	btfss	indf2,7,c
   732   00171A  D002               	bra	u3755
   733   00171C  8FCC               	bsf	led_initialize@pin_obj& (0+255),7,b
   734   00171E  D002               	bra	u3757
   735   001720                     u3755:
   736   001720  0100               	movlb	0	; () banked
   737   001722  9FCC               	bcf	led_initialize@pin_obj& (0+255),7,b
   738   001724                     u3757:
   739   001724                     
   740                           ; BSR set to: 0
   741                           ;ECU_Layer/LED/ecu_led.c: 19:     gpio_pin_intialize(&pin_obj);
   742   001724  0ECC               	movlw	low led_initialize@pin_obj
   743   001726  6FC4               	movwf	gpio_pin_intialize@pin_config& (0+255),b
   744   001728  0E00               	movlw	high led_initialize@pin_obj
   745   00172A  6FC5               	movwf	(gpio_pin_intialize@pin_config+1)& (0+255),b
   746   00172C  ECD8  F00B         	call	_gpio_pin_intialize	;wreg free
   747   001730                     l4591:
   748                           
   749                           ;ECU_Layer/LED/ecu_led.c: 21: return ret;
   750   001730  0100               	movlb	0	; () banked
   751   001732  51CB               	movf	led_initialize@ret& (0+255),w,b
   752   001734                     
   753                           ; BSR set to: 0
   754   001734  0012               	return		;funcret
   755   001736                     __end_of_led_initialize:
   756                           	callstack 0
   757                           
   758 ;; *************** function _gpio_pin_intialize *****************
   759 ;; Defined at:
   760 ;;		line 127 in file "MCAL_Layer/GPIO/hal_gpio.c"
   761 ;; Parameters:    Size  Location     Type
   762 ;;  pin_config      2    0[BANK0 ] PTR const struct .
   763 ;;		 -> lcd_1.lcd_data(4), lcd_1(6), Relay_Initialize@pin_obj(1), led_initialize@pin_obj(1), 
   764 ;; Auto vars:     Size  Location     Type
   765 ;;  ret             1    3[BANK0 ] unsigned char 
   766 ;; Return value:  Size  Location     Type
   767 ;;                  1    wreg      unsigned char 
   768 ;; Registers used:
   769 ;;		wreg, fsr2l, fsr2h, status,2, status,0, prodl, prodh, cstack
   770 ;; Tracked objects:
   771 ;;		On entry : 0/0
   772 ;;		On exit  : 0/0
   773 ;;		Unchanged: 0/0
   774 ;; Data sizes:     COMRAM   BANK0   BANK1   BANK2   BANK3   BANK4   BANK5   BANK6   BANK7   BANK8   BANK9  BANK10  BANK1
      +1  BANK12  BANK13  BANK14  BANK15
   775 ;;      Params:         0       2       0       0       0       0       0       0       0       0       0       0       
      +0       0       0       0       0
   776 ;;      Locals:         0       1       0       0       0       0       0       0       0       0       0       0       
      +0       0       0       0       0
   777 ;;      Temps:          0       1       0       0       0       0       0       0       0       0       0       0       
      +0       0       0       0       0
   778 ;;      Totals:         0       4       0       0       0       0       0       0       0       0       0       0       
      +0       0       0       0       0
   779 ;;Total ram usage:        4 bytes
   780 ;; Hardware stack levels used: 1
   781 ;; Hardware stack levels required when called: 6
   782 ;; This function calls:
   783 ;;		_gpio_pin_direction_intialize
   784 ;;		_gpio_pin_write_logic
   785 ;; This function is called by:
   786 ;;		_led_initialize
   787 ;;		_segment_initialize
   788 ;;		_keypade_initialize
   789 ;;		_lcd_4_bit_initialize
   790 ;;		_lcd_8_bit_initialize
   791 ;;		_DC_Motor_Intialize
   792 ;;		_Relay_Initialize
   793 ;; This function uses a non-reentrant model
   794 ;;
   795                           
   796                           	psect	text2
   797   0017B0                     __ptext2:
   798                           	callstack 0
   799   0017B0                     _gpio_pin_intialize:
   800                           	callstack 23
   801   0017B0                     
   802                           ;MCAL_Layer/GPIO/hal_gpio.c: 129:  if(pin_config == ((void*)0) || pin_config->pin > 8 -1
      +                          ){
   803   0017B0  0100               	movlb	0	; () banked
   804   0017B2  51C4               	movf	gpio_pin_intialize@pin_config& (0+255),w,b
   805   0017B4  11C5               	iorwf	(gpio_pin_intialize@pin_config+1)& (0+255),w,b
   806   0017B6  B4D8               	btfsc	status,2,c
   807   0017B8  EFE0  F00B         	goto	u3581
   808   0017BC  EFE2  F00B         	goto	u3580
   809   0017C0                     u3581:
   810   0017C0  EFF3  F00B         	goto	l4399
   811   0017C4                     u3580:
   812   0017C4                     
   813                           ; BSR set to: 0
   814   0017C4  C0C4  FFD9         	movff	gpio_pin_intialize@pin_config,fsr2l
   815   0017C8  C0C5  FFDA         	movff	gpio_pin_intialize@pin_config+1,fsr2h
   816   0017CC  30DF               	rrcf	223,w,c
   817   0017CE  32E8               	rrcf	wreg,f,c
   818   0017D0  32E8               	rrcf	wreg,f,c
   819   0017D2  0B07               	andlw	7
   820   0017D4  6FC6               	movwf	??_gpio_pin_intialize& (0+255),b
   821   0017D6  0E07               	movlw	7
   822   0017D8  65C6               	cpfsgt	??_gpio_pin_intialize& (0+255),b
   823   0017DA  EFF1  F00B         	goto	u3591
   824   0017DE  EFF3  F00B         	goto	u3590
   825   0017E2                     u3591:
   826   0017E2  EFF7  F00B         	goto	l4401
   827   0017E6                     u3590:
   828   0017E6                     l4399:
   829                           
   830                           ; BSR set to: 0
   831                           ;MCAL_Layer/GPIO/hal_gpio.c: 130:      ret = (Std_ReturnType)0x00;
   832   0017E6  0E00               	movlw	0
   833   0017E8  6FC7               	movwf	gpio_pin_intialize@ret& (0+255),b
   834                           
   835                           ;MCAL_Layer/GPIO/hal_gpio.c: 131:  }
   836   0017EA  EF0F  F00C         	goto	l4403
   837   0017EE                     l4401:
   838                           
   839                           ; BSR set to: 0
   840                           ;MCAL_Layer/GPIO/hal_gpio.c: 133:      ret = gpio_pin_direction_intialize(pin_config);
   841   0017EE  C0C4  F064         	movff	gpio_pin_intialize@pin_config,gpio_pin_direction_intialize@pin_config
   842   0017F2  C0C5  F065         	movff	gpio_pin_intialize@pin_config+1,gpio_pin_direction_intialize@pin_config+1
   843   0017F6  EC7F  F009         	call	_gpio_pin_direction_intialize	;wreg free
   844   0017FA  0100               	movlb	0	; () banked
   845   0017FC  6FC7               	movwf	gpio_pin_intialize@ret& (0+255),b
   846                           
   847                           ;MCAL_Layer/GPIO/hal_gpio.c: 134:      ret = gpio_pin_write_logic(pin_config, pin_config
      +                          ->logic);
   848   0017FE  C0C4  F064         	movff	gpio_pin_intialize@pin_config,gpio_pin_write_logic@pin_config
   849   001802  C0C5  F065         	movff	gpio_pin_intialize@pin_config+1,gpio_pin_write_logic@pin_config+1
   850   001806  C0C4  FFD9         	movff	gpio_pin_intialize@pin_config,fsr2l
   851   00180A  C0C5  FFDA         	movff	gpio_pin_intialize@pin_config+1,fsr2h
   852   00180E  0E00               	movlw	0
   853   001810  BEDF               	btfsc	indf2,7,c
   854   001812  0E01               	movlw	1
   855   001814  6E66               	movwf	gpio_pin_write_logic@logic^0,c
   856   001816  EC21  F00A         	call	_gpio_pin_write_logic	;wreg free
   857   00181A  0100               	movlb	0	; () banked
   858   00181C  6FC7               	movwf	gpio_pin_intialize@ret& (0+255),b
   859   00181E                     l4403:
   860                           
   861                           ; BSR set to: 0
   862                           ;MCAL_Layer/GPIO/hal_gpio.c: 136:   return ret;
   863   00181E  51C7               	movf	gpio_pin_intialize@ret& (0+255),w,b
   864   001820                     
   865                           ; BSR set to: 0
   866   001820  0012               	return		;funcret
   867   001822                     __end_of_gpio_pin_intialize:
   868                           	callstack 0
   869                           
   870 ;; *************** function _gpio_pin_write_logic *****************
   871 ;; Defined at:
   872 ;;		line 59 in file "MCAL_Layer/GPIO/hal_gpio.c"
   873 ;; Parameters:    Size  Location     Type
   874 ;;  pin_config      2   17[COMRAM] PTR const struct .
   875 ;;		 -> lcd_4_bit_send_command@lcd.lcd_data(8), lcd_4_bit_send_char_data@lcd.lcd_data(8), lcd_4_bit_send_data_position@l
      +cd.lcd_data(8), lcd_4_bit_send_string@lcd.lcd_data(8), 
   876 ;;		 -> lcd_4_bit_send_string_position@lcd.lcd_data(8), lcd_1.lcd_data(8), lcd_1.lcd_data(4), lcd_1(6), 
   877 ;;		 -> Relay_Turn_OFF@pin_obj(1), Relay_Turn_ON@pin_obj(1), Relay_Initialize@pin_obj(1), led_turn_off@pin_obj(1), 
   878 ;;		 -> led_turn_on@pin_obj(1), led_initialize@pin_obj(1), lcd_8_bit_send_command@lcd(2), lcd_4_bit_send_string_position
      +@lcd(2), 
   879 ;;		 -> lcd_4_bit_send_string@lcd(2), lcd_4_bit_send_data_position@lcd(2), lcd_4_bit_send_char_data@lcd(2), lcd_4_bit_se
      +nd_command@lcd(2), 
   880 ;;  logic           1   19[COMRAM] enum E2968
   881 ;; Auto vars:     Size  Location     Type
   882 ;;  ret             1   26[COMRAM] unsigned char 
   883 ;; Return value:  Size  Location     Type
   884 ;;                  1    wreg      unsigned char 
   885 ;; Registers used:
   886 ;;		wreg, fsr2l, fsr2h, status,2, status,0, prodl, prodh
   887 ;; Tracked objects:
   888 ;;		On entry : 0/0
   889 ;;		On exit  : 0/0
   890 ;;		Unchanged: 0/0
   891 ;; Data sizes:     COMRAM   BANK0   BANK1   BANK2   BANK3   BANK4   BANK5   BANK6   BANK7   BANK8   BANK9  BANK10  BANK1
      +1  BANK12  BANK13  BANK14  BANK15
   892 ;;      Params:         3       0       0       0       0       0       0       0       0       0       0       0       
      +0       0       0       0       0
   893 ;;      Locals:         1       0       0       0       0       0       0       0       0       0       0       0       
      +0       0       0       0       0
   894 ;;      Temps:          6       0       0       0       0       0       0       0       0       0       0       0       
      +0       0       0       0       0
   895 ;;      Totals:        10       0       0       0       0       0       0       0       0       0       0       0       
      +0       0       0       0       0
   896 ;;Total ram usage:       10 bytes
   897 ;; Hardware stack levels used: 1
   898 ;; Hardware stack levels required when called: 5
   899 ;; This function calls:
   900 ;;		Nothing
   901 ;; This function is called by:
   902 ;;		_gpio_pin_intialize
   903 ;;		_segment_write_data
   904 ;;		_keypade_get_value
   905 ;;		_lcd_4_bit_send_command
   906 ;;		_lcd_4_bit_send_char_data
   907 ;;		_lcd_8_bit_send_command
   908 ;;		_lcd_8_bit_send_char_data
   909 ;;		_send_4bit_data
   910 ;;		_lcd_4bit_send_enable_signal
   911 ;;		_lcd_8bit_send_enable_signal
   912 ;;		_led_turn_on
   913 ;;		_led_turn_off
   914 ;;		_DC_Motor_Move_Right
   915 ;;		_DC_Motor_Move_Left
   916 ;;		_DC_Motor_Stop
   917 ;;		_Relay_Turn_ON
   918 ;;		_Relay_Turn_OFF
   919 ;; This function uses a non-reentrant model
   920 ;;
   921                           
   922                           	psect	text3
   923   001442                     __ptext3:
   924                           	callstack 0
   925   001442                     _gpio_pin_write_logic:
   926                           	callstack 23
   927   001442                     
   928                           ;MCAL_Layer/GPIO/hal_gpio.c: 60:     Std_ReturnType ret = (Std_ReturnType)0x01;
   929   001442  0E01               	movlw	1
   930   001444  6E6D               	movwf	gpio_pin_write_logic@ret^0,c
   931   001446                     
   932                           ;MCAL_Layer/GPIO/hal_gpio.c: 61:       if(pin_config == ((void*)0) || logic == ((void*)0
      +                          ) || pin_config->pin > 8 -1){
   933   001446  5064               	movf	gpio_pin_write_logic@pin_config^0,w,c
   934   001448  1065               	iorwf	(gpio_pin_write_logic@pin_config+1)^0,w,c
   935   00144A  B4D8               	btfsc	status,2,c
   936   00144C  EF2A  F00A         	goto	u3471
   937   001450  EF2C  F00A         	goto	u3470
   938   001454                     u3471:
   939   001454  EF45  F00A         	goto	l4325
   940   001458                     u3470:
   941   001458  5066               	movf	gpio_pin_write_logic@logic^0,w,c
   942   00145A  B4D8               	btfsc	status,2,c
   943   00145C  EF32  F00A         	goto	u3481
   944   001460  EF34  F00A         	goto	u3480
   945   001464                     u3481:
   946   001464  EF45  F00A         	goto	l4325
   947   001468                     u3480:
   948   001468  C064  FFD9         	movff	gpio_pin_write_logic@pin_config,fsr2l
   949   00146C  C065  FFDA         	movff	gpio_pin_write_logic@pin_config+1,fsr2h
   950   001470  30DF               	rrcf	223,w,c
   951   001472  32E8               	rrcf	wreg,f,c
   952   001474  32E8               	rrcf	wreg,f,c
   953   001476  0B07               	andlw	7
   954   001478  6E67               	movwf	??_gpio_pin_write_logic^0,c
   955   00147A  0E07               	movlw	7
   956   00147C  6467               	cpfsgt	??_gpio_pin_write_logic^0,c
   957   00147E  EF43  F00A         	goto	u3491
   958   001482  EF45  F00A         	goto	u3490
   959   001486                     u3491:
   960   001486  EFA8  F00A         	goto	l4335
   961   00148A                     u3490:
   962   00148A                     l4325:
   963                           
   964                           ;MCAL_Layer/GPIO/hal_gpio.c: 62:      ret = (Std_ReturnType)0x00;
   965   00148A  0E00               	movlw	0
   966   00148C  6E6D               	movwf	gpio_pin_write_logic@ret^0,c
   967                           
   968                           ;MCAL_Layer/GPIO/hal_gpio.c: 63:  }
   969   00148E  EFBD  F00A         	goto	l4337
   970   001492                     l4327:
   971                           
   972                           ;MCAL_Layer/GPIO/hal_gpio.c: 68:            (*lat_registers[pin_config->port] &= ~(1<<pi
      +                          n_config->pin));
   973   001492  C064  FFD9         	movff	gpio_pin_write_logic@pin_config,fsr2l
   974   001496  C065  FFDA         	movff	gpio_pin_write_logic@pin_config+1,fsr2h
   975   00149A  30DF               	rrcf	223,w,c
   976   00149C  32E8               	rrcf	wreg,f,c
   977   00149E  32E8               	rrcf	wreg,f,c
   978   0014A0  0B07               	andlw	7
   979   0014A2  6E67               	movwf	??_gpio_pin_write_logic^0,c
   980   0014A4  0E01               	movlw	1
   981   0014A6  6E68               	movwf	(??_gpio_pin_write_logic+1)^0,c
   982   0014A8  2A67               	incf	??_gpio_pin_write_logic^0,f,c
   983   0014AA  EF59  F00A         	goto	u3504
   984   0014AE                     u3505:
   985   0014AE  90D8               	bcf	status,0,c
   986   0014B0  3668               	rlcf	(??_gpio_pin_write_logic+1)^0,f,c
   987   0014B2                     u3504:
   988   0014B2  2E67               	decfsz	??_gpio_pin_write_logic^0,f,c
   989   0014B4  EF57  F00A         	goto	u3505
   990   0014B8  5068               	movf	(??_gpio_pin_write_logic+1)^0,w,c
   991   0014BA  0AFF               	xorlw	255
   992   0014BC  6E69               	movwf	(??_gpio_pin_write_logic+2)^0,c
   993   0014BE  C064  FFD9         	movff	gpio_pin_write_logic@pin_config,fsr2l
   994   0014C2  C065  FFDA         	movff	gpio_pin_write_logic@pin_config+1,fsr2h
   995   0014C6  50DF               	movf	223,w,c
   996   0014C8  0B07               	andlw	7
   997   0014CA  6E6A               	movwf	(??_gpio_pin_write_logic+3)^0,c
   998   0014CC  506A               	movf	(??_gpio_pin_write_logic+3)^0,w,c
   999   0014CE  0D02               	mullw	2
  1000   0014D0  0E2B               	movlw	low _lat_registers
  1001   0014D2  24F3               	addwf	243,w,c
  1002   0014D4  6ED9               	movwf	fsr2l,c
  1003   0014D6  0E00               	movlw	high _lat_registers
  1004   0014D8  20F4               	addwfc	prodh,w,c
  1005   0014DA  6EDA               	movwf	fsr2h,c
  1006   0014DC  CFDE F06B          	movff	postinc2,??_gpio_pin_write_logic+4
  1007   0014E0  CFDD F06C          	movff	postdec2,??_gpio_pin_write_logic+5
  1008   0014E4  C06B  FFD9         	movff	??_gpio_pin_write_logic+4,fsr2l
  1009   0014E8  C06C  FFDA         	movff	??_gpio_pin_write_logic+5,fsr2h
  1010   0014EC  5069               	movf	(??_gpio_pin_write_logic+2)^0,w,c
  1011   0014EE  16DF               	andwf	indf2,f,c
  1012                           
  1013                           ;MCAL_Layer/GPIO/hal_gpio.c: 69:            break;
  1014   0014F0  EFBD  F00A         	goto	l4337
  1015   0014F4                     l4329:
  1016                           
  1017                           ;MCAL_Layer/GPIO/hal_gpio.c: 71:            (*lat_registers[pin_config->port] |= (1<<pin
      +                          _config->pin));
  1018   0014F4  C064  FFD9         	movff	gpio_pin_write_logic@pin_config,fsr2l
  1019   0014F8  C065  FFDA         	movff	gpio_pin_write_logic@pin_config+1,fsr2h
  1020   0014FC  30DF               	rrcf	223,w,c
  1021   0014FE  32E8               	rrcf	wreg,f,c
  1022   001500  32E8               	rrcf	wreg,f,c
  1023   001502  0B07               	andlw	7
  1024   001504  6E67               	movwf	??_gpio_pin_write_logic^0,c
  1025   001506  0E01               	movlw	1
  1026   001508  6E68               	movwf	(??_gpio_pin_write_logic+1)^0,c
  1027   00150A  2A67               	incf	??_gpio_pin_write_logic^0,f,c
  1028   00150C  EF8A  F00A         	goto	u3514
  1029   001510                     u3515:
  1030   001510  90D8               	bcf	status,0,c
  1031   001512  3668               	rlcf	(??_gpio_pin_write_logic+1)^0,f,c
  1032   001514                     u3514:
  1033   001514  2E67               	decfsz	??_gpio_pin_write_logic^0,f,c
  1034   001516  EF88  F00A         	goto	u3515
  1035   00151A  C064  FFD9         	movff	gpio_pin_write_logic@pin_config,fsr2l
  1036   00151E  C065  FFDA         	movff	gpio_pin_write_logic@pin_config+1,fsr2h
  1037   001522  50DF               	movf	223,w,c
  1038   001524  0B07               	andlw	7
  1039   001526  6E69               	movwf	(??_gpio_pin_write_logic+2)^0,c
  1040   001528  5069               	movf	(??_gpio_pin_write_logic+2)^0,w,c
  1041   00152A  0D02               	mullw	2
  1042   00152C  0E2B               	movlw	low _lat_registers
  1043   00152E  24F3               	addwf	243,w,c
  1044   001530  6ED9               	movwf	fsr2l,c
  1045   001532  0E00               	movlw	high _lat_registers
  1046   001534  20F4               	addwfc	prodh,w,c
  1047   001536  6EDA               	movwf	fsr2h,c
  1048   001538  CFDE F06A          	movff	postinc2,??_gpio_pin_write_logic+3
  1049   00153C  CFDD F06B          	movff	postdec2,??_gpio_pin_write_logic+4
  1050   001540  C06A  FFD9         	movff	??_gpio_pin_write_logic+3,fsr2l
  1051   001544  C06B  FFDA         	movff	??_gpio_pin_write_logic+4,fsr2h
  1052   001548  5068               	movf	(??_gpio_pin_write_logic+1)^0,w,c
  1053   00154A  12DF               	iorwf	indf2,f,c
  1054                           
  1055                           ;MCAL_Layer/GPIO/hal_gpio.c: 72:            break;
  1056   00154C  EFBD  F00A         	goto	l4337
  1057   001550                     l4335:
  1058   001550  5066               	movf	gpio_pin_write_logic@logic^0,w,c
  1059   001552  6E67               	movwf	??_gpio_pin_write_logic^0,c
  1060   001554  6A68               	clrf	(??_gpio_pin_write_logic+1)^0,c
  1061                           
  1062                           ; Switch on 2 bytes has been partitioned into a top level switch of size 1, and 1 sub-sw
      +                          itches
  1063                           ; Switch size 1, requested type "simple"
  1064                           ; Number of cases is 1, Range of values is 0 to 0
  1065                           ; switch strategies available:
  1066                           ; Name         Instructions Cycles
  1067                           ; simple_byte            4     3 (average)
  1068                           ;	Chosen strategy is simple_byte
  1069   001556  5068               	movf	(??_gpio_pin_write_logic+1)^0,w,c
  1070   001558  0A00               	xorlw	0	; case 0
  1071   00155A  B4D8               	btfsc	status,2,c
  1072   00155C  EFB2  F00A         	goto	l5109
  1073   001560  EF45  F00A         	goto	l4325
  1074   001564                     l5109:
  1075                           
  1076                           ; Switch size 1, requested type "simple"
  1077                           ; Number of cases is 2, Range of values is 0 to 1
  1078                           ; switch strategies available:
  1079                           ; Name         Instructions Cycles
  1080                           ; simple_byte            7     4 (average)
  1081                           ;	Chosen strategy is simple_byte
  1082   001564  5067               	movf	??_gpio_pin_write_logic^0,w,c
  1083   001566  0A00               	xorlw	0	; case 0
  1084   001568  B4D8               	btfsc	status,2,c
  1085   00156A  EF49  F00A         	goto	l4327
  1086   00156E  0A01               	xorlw	1	; case 1
  1087   001570  B4D8               	btfsc	status,2,c
  1088   001572  EF7A  F00A         	goto	l4329
  1089   001576  EF45  F00A         	goto	l4325
  1090   00157A                     l4337:
  1091                           
  1092                           ;MCAL_Layer/GPIO/hal_gpio.c: 78:     return ret;
  1093   00157A  506D               	movf	gpio_pin_write_logic@ret^0,w,c
  1094   00157C  0012               	return		;funcret
  1095   00157E                     __end_of_gpio_pin_write_logic:
  1096                           	callstack 0
  1097                           
  1098 ;; *************** function _gpio_pin_direction_intialize *****************
  1099 ;; Defined at:
  1100 ;;		line 14 in file "MCAL_Layer/GPIO/hal_gpio.c"
  1101 ;; Parameters:    Size  Location     Type
  1102 ;;  pin_config      2   17[COMRAM] PTR const struct .
  1103 ;;		 -> lcd_1.lcd_data(4), lcd_1(6), Relay_Initialize@pin_obj(1), led_initialize@pin_obj(1), 
  1104 ;; Auto vars:     Size  Location     Type
  1105 ;;  ret             1   25[COMRAM] unsigned char 
  1106 ;; Return value:  Size  Location     Type
  1107 ;;                  1    wreg      unsigned char 
  1108 ;; Registers used:
  1109 ;;		wreg, fsr2l, fsr2h, status,2, status,0, prodl, prodh
  1110 ;; Tracked objects:
  1111 ;;		On entry : 0/0
  1112 ;;		On exit  : 0/0
  1113 ;;		Unchanged: 0/0
  1114 ;; Data sizes:     COMRAM   BANK0   BANK1   BANK2   BANK3   BANK4   BANK5   BANK6   BANK7   BANK8   BANK9  BANK10  BANK1
      +1  BANK12  BANK13  BANK14  BANK15
  1115 ;;      Params:         2       0       0       0       0       0       0       0       0       0       0       0       
      +0       0       0       0       0
  1116 ;;      Locals:         1       0       0       0       0       0       0       0       0       0       0       0       
      +0       0       0       0       0
  1117 ;;      Temps:          6       0       0       0       0       0       0       0       0       0       0       0       
      +0       0       0       0       0
  1118 ;;      Totals:         9       0       0       0       0       0       0       0       0       0       0       0       
      +0       0       0       0       0
  1119 ;;Total ram usage:        9 bytes
  1120 ;; Hardware stack levels used: 1
  1121 ;; Hardware stack levels required when called: 5
  1122 ;; This function calls:
  1123 ;;		Nothing
  1124 ;; This function is called by:
  1125 ;;		_gpio_pin_intialize
  1126 ;;		_Button_Initialize
  1127 ;;		_keypade_initialize
  1128 ;;		_Interrupt_RBx_Initialization
  1129 ;;		_Interrupt_INTx_Pin_Init
  1130 ;; This function uses a non-reentrant model
  1131 ;;
  1132                           
  1133                           	psect	text4
  1134   0012FE                     __ptext4:
  1135                           	callstack 0
  1136   0012FE                     _gpio_pin_direction_intialize:
  1137                           	callstack 23
  1138   0012FE                     
  1139                           ;MCAL_Layer/GPIO/hal_gpio.c: 15:  Std_ReturnType ret = (Std_ReturnType)0x01;
  1140   0012FE  0E01               	movlw	1
  1141   001300  6E6C               	movwf	gpio_pin_direction_intialize@ret^0,c
  1142   001302                     
  1143                           ;MCAL_Layer/GPIO/hal_gpio.c: 16:  if(pin_config == ((void*)0) || pin_config->pin > 8 -1)
      +                          {
  1144   001302  5064               	movf	gpio_pin_direction_intialize@pin_config^0,w,c
  1145   001304  1065               	iorwf	(gpio_pin_direction_intialize@pin_config+1)^0,w,c
  1146   001306  B4D8               	btfsc	status,2,c
  1147   001308  EF88  F009         	goto	u3521
  1148   00130C  EF8A  F009         	goto	u3520
  1149   001310                     u3521:
  1150   001310  EF9B  F009         	goto	l4351
  1151   001314                     u3520:
  1152   001314  C064  FFD9         	movff	gpio_pin_direction_intialize@pin_config,fsr2l
  1153   001318  C065  FFDA         	movff	gpio_pin_direction_intialize@pin_config+1,fsr2h
  1154   00131C  30DF               	rrcf	223,w,c
  1155   00131E  32E8               	rrcf	wreg,f,c
  1156   001320  32E8               	rrcf	wreg,f,c
  1157   001322  0B07               	andlw	7
  1158   001324  6E66               	movwf	??_gpio_pin_direction_intialize^0,c
  1159   001326  0E07               	movlw	7
  1160   001328  6466               	cpfsgt	??_gpio_pin_direction_intialize^0,c
  1161   00132A  EF99  F009         	goto	u3531
  1162   00132E  EF9B  F009         	goto	u3530
  1163   001332                     u3531:
  1164   001332  EFFE  F009         	goto	l4359
  1165   001336                     u3530:
  1166   001336                     l4351:
  1167                           
  1168                           ;MCAL_Layer/GPIO/hal_gpio.c: 17:      ret = (Std_ReturnType)0x00;
  1169   001336  0E00               	movlw	0
  1170   001338  6E6C               	movwf	gpio_pin_direction_intialize@ret^0,c
  1171                           
  1172                           ;MCAL_Layer/GPIO/hal_gpio.c: 18:  }
  1173   00133A  EF1F  F00A         	goto	l4361
  1174   00133E                     l4353:
  1175                           
  1176                           ;MCAL_Layer/GPIO/hal_gpio.c: 22:            (*tris_registers[pin_config->port] &= ~(1<<p
      +                          in_config->pin));
  1177   00133E  C064  FFD9         	movff	gpio_pin_direction_intialize@pin_config,fsr2l
  1178   001342  C065  FFDA         	movff	gpio_pin_direction_intialize@pin_config+1,fsr2h
  1179   001346  30DF               	rrcf	223,w,c
  1180   001348  32E8               	rrcf	wreg,f,c
  1181   00134A  32E8               	rrcf	wreg,f,c
  1182   00134C  0B07               	andlw	7
  1183   00134E  6E66               	movwf	??_gpio_pin_direction_intialize^0,c
  1184   001350  0E01               	movlw	1
  1185   001352  6E67               	movwf	(??_gpio_pin_direction_intialize+1)^0,c
  1186   001354  2A66               	incf	??_gpio_pin_direction_intialize^0,f,c
  1187   001356  EFAF  F009         	goto	u3544
  1188   00135A                     u3545:
  1189   00135A  90D8               	bcf	status,0,c
  1190   00135C  3667               	rlcf	(??_gpio_pin_direction_intialize+1)^0,f,c
  1191   00135E                     u3544:
  1192   00135E  2E66               	decfsz	??_gpio_pin_direction_intialize^0,f,c
  1193   001360  EFAD  F009         	goto	u3545
  1194   001364  5067               	movf	(??_gpio_pin_direction_intialize+1)^0,w,c
  1195   001366  0AFF               	xorlw	255
  1196   001368  6E68               	movwf	(??_gpio_pin_direction_intialize+2)^0,c
  1197   00136A  C064  FFD9         	movff	gpio_pin_direction_intialize@pin_config,fsr2l
  1198   00136E  C065  FFDA         	movff	gpio_pin_direction_intialize@pin_config+1,fsr2h
  1199   001372  50DF               	movf	223,w,c
  1200   001374  0B07               	andlw	7
  1201   001376  6E69               	movwf	(??_gpio_pin_direction_intialize+3)^0,c
  1202   001378  5069               	movf	(??_gpio_pin_direction_intialize+3)^0,w,c
  1203   00137A  0D02               	mullw	2
  1204   00137C  0E35               	movlw	low _tris_registers
  1205   00137E  24F3               	addwf	243,w,c
  1206   001380  6ED9               	movwf	fsr2l,c
  1207   001382  0E00               	movlw	high _tris_registers
  1208   001384  20F4               	addwfc	prodh,w,c
  1209   001386  6EDA               	movwf	fsr2h,c
  1210   001388  CFDE F06A          	movff	postinc2,??_gpio_pin_direction_intialize+4
  1211   00138C  CFDD F06B          	movff	postdec2,??_gpio_pin_direction_intialize+5
  1212   001390  C06A  FFD9         	movff	??_gpio_pin_direction_intialize+4,fsr2l
  1213   001394  C06B  FFDA         	movff	??_gpio_pin_direction_intialize+5,fsr2h
  1214   001398  5068               	movf	(??_gpio_pin_direction_intialize+2)^0,w,c
  1215   00139A  16DF               	andwf	indf2,f,c
  1216                           
  1217                           ;MCAL_Layer/GPIO/hal_gpio.c: 23:            break;
  1218   00139C  EF1F  F00A         	goto	l4361
  1219   0013A0                     l4355:
  1220                           
  1221                           ;MCAL_Layer/GPIO/hal_gpio.c: 25:            (*tris_registers[pin_config->port] |= (1<<pi
      +                          n_config->pin));
  1222   0013A0  C064  FFD9         	movff	gpio_pin_direction_intialize@pin_config,fsr2l
  1223   0013A4  C065  FFDA         	movff	gpio_pin_direction_intialize@pin_config+1,fsr2h
  1224   0013A8  30DF               	rrcf	223,w,c
  1225   0013AA  32E8               	rrcf	wreg,f,c
  1226   0013AC  32E8               	rrcf	wreg,f,c
  1227   0013AE  0B07               	andlw	7
  1228   0013B0  6E66               	movwf	??_gpio_pin_direction_intialize^0,c
  1229   0013B2  0E01               	movlw	1
  1230   0013B4  6E67               	movwf	(??_gpio_pin_direction_intialize+1)^0,c
  1231   0013B6  2A66               	incf	??_gpio_pin_direction_intialize^0,f,c
  1232   0013B8  EFE0  F009         	goto	u3554
  1233   0013BC                     u3555:
  1234   0013BC  90D8               	bcf	status,0,c
  1235   0013BE  3667               	rlcf	(??_gpio_pin_direction_intialize+1)^0,f,c
  1236   0013C0                     u3554:
  1237   0013C0  2E66               	decfsz	??_gpio_pin_direction_intialize^0,f,c
  1238   0013C2  EFDE  F009         	goto	u3555
  1239   0013C6  C064  FFD9         	movff	gpio_pin_direction_intialize@pin_config,fsr2l
  1240   0013CA  C065  FFDA         	movff	gpio_pin_direction_intialize@pin_config+1,fsr2h
  1241   0013CE  50DF               	movf	223,w,c
  1242   0013D0  0B07               	andlw	7
  1243   0013D2  6E68               	movwf	(??_gpio_pin_direction_intialize+2)^0,c
  1244   0013D4  5068               	movf	(??_gpio_pin_direction_intialize+2)^0,w,c
  1245   0013D6  0D02               	mullw	2
  1246   0013D8  0E35               	movlw	low _tris_registers
  1247   0013DA  24F3               	addwf	243,w,c
  1248   0013DC  6ED9               	movwf	fsr2l,c
  1249   0013DE  0E00               	movlw	high _tris_registers
  1250   0013E0  20F4               	addwfc	prodh,w,c
  1251   0013E2  6EDA               	movwf	fsr2h,c
  1252   0013E4  CFDE F069          	movff	postinc2,??_gpio_pin_direction_intialize+3
  1253   0013E8  CFDD F06A          	movff	postdec2,??_gpio_pin_direction_intialize+4
  1254   0013EC  C069  FFD9         	movff	??_gpio_pin_direction_intialize+3,fsr2l
  1255   0013F0  C06A  FFDA         	movff	??_gpio_pin_direction_intialize+4,fsr2h
  1256   0013F4  5067               	movf	(??_gpio_pin_direction_intialize+1)^0,w,c
  1257   0013F6  12DF               	iorwf	indf2,f,c
  1258                           
  1259                           ;MCAL_Layer/GPIO/hal_gpio.c: 26:            break;
  1260   0013F8  EF1F  F00A         	goto	l4361
  1261   0013FC                     l4359:
  1262   0013FC  C064  FFD9         	movff	gpio_pin_direction_intialize@pin_config,fsr2l
  1263   001400  C065  FFDA         	movff	gpio_pin_direction_intialize@pin_config+1,fsr2h
  1264   001404  BCDF               	btfsc	indf2,6,c
  1265   001406  EF07  F00A         	goto	u3561
  1266   00140A  EF0A  F00A         	goto	u3560
  1267   00140E                     u3561:
  1268   00140E  0E01               	movlw	1
  1269   001410  EF0B  F00A         	goto	u3570
  1270   001414                     u3560:
  1271   001414  0E00               	movlw	0
  1272   001416                     u3570:
  1273   001416  6E66               	movwf	??_gpio_pin_direction_intialize^0,c
  1274   001418  6A67               	clrf	(??_gpio_pin_direction_intialize+1)^0,c
  1275                           
  1276                           ; Switch on 2 bytes has been partitioned into a top level switch of size 1, and 1 sub-sw
      +                          itches
  1277                           ; Switch size 1, requested type "simple"
  1278                           ; Number of cases is 1, Range of values is 0 to 0
  1279                           ; switch strategies available:
  1280                           ; Name         Instructions Cycles
  1281                           ; simple_byte            4     3 (average)
  1282                           ;	Chosen strategy is simple_byte
  1283   00141A  5067               	movf	(??_gpio_pin_direction_intialize+1)^0,w,c
  1284   00141C  0A00               	xorlw	0	; case 0
  1285   00141E  B4D8               	btfsc	status,2,c
  1286   001420  EF14  F00A         	goto	l5111
  1287   001424  EF9B  F009         	goto	l4351
  1288   001428                     l5111:
  1289                           
  1290                           ; Switch size 1, requested type "simple"
  1291                           ; Number of cases is 2, Range of values is 0 to 1
  1292                           ; switch strategies available:
  1293                           ; Name         Instructions Cycles
  1294                           ; simple_byte            7     4 (average)
  1295                           ;	Chosen strategy is simple_byte
  1296   001428  5066               	movf	??_gpio_pin_direction_intialize^0,w,c
  1297   00142A  0A00               	xorlw	0	; case 0
  1298   00142C  B4D8               	btfsc	status,2,c
  1299   00142E  EF9F  F009         	goto	l4353
  1300   001432  0A01               	xorlw	1	; case 1
  1301   001434  B4D8               	btfsc	status,2,c
  1302   001436  EFD0  F009         	goto	l4355
  1303   00143A  EF9B  F009         	goto	l4351
  1304   00143E                     l4361:
  1305                           
  1306                           ;MCAL_Layer/GPIO/hal_gpio.c: 31:       return ret;
  1307   00143E  506C               	movf	gpio_pin_direction_intialize@ret^0,w,c
  1308   001440  0012               	return		;funcret
  1309   001442                     __end_of_gpio_pin_direction_intialize:
  1310                           	callstack 0
  1311                           
  1312 ;; *************** function _application_initialize *****************
  1313 ;; Defined at:
  1314 ;;		line 42 in file "application.c"
  1315 ;; Parameters:    Size  Location     Type
  1316 ;;		None
  1317 ;; Auto vars:     Size  Location     Type
  1318 ;;  ret             1    0        unsigned char 
  1319 ;; Return value:  Size  Location     Type
  1320 ;;                  1    wreg      void 
  1321 ;; Registers used:
  1322 ;;		wreg, status,2
  1323 ;; Tracked objects:
  1324 ;;		On entry : 0/0
  1325 ;;		On exit  : 0/0
  1326 ;;		Unchanged: 0/0
  1327 ;; Data sizes:     COMRAM   BANK0   BANK1   BANK2   BANK3   BANK4   BANK5   BANK6   BANK7   BANK8   BANK9  BANK10  BANK1
      +1  BANK12  BANK13  BANK14  BANK15
  1328 ;;      Params:         0       0       0       0       0       0       0       0       0       0       0       0       
      +0       0       0       0       0
  1329 ;;      Locals:         0       0       0       0       0       0       0       0       0       0       0       0       
      +0       0       0       0       0
  1330 ;;      Temps:          0       0       0       0       0       0       0       0       0       0       0       0       
      +0       0       0       0       0
  1331 ;;      Totals:         0       0       0       0       0       0       0       0       0       0       0       0       
      +0       0       0       0       0
  1332 ;;Total ram usage:        0 bytes
  1333 ;; Hardware stack levels used: 1
  1334 ;; Hardware stack levels required when called: 5
  1335 ;; This function calls:
  1336 ;;		Nothing
  1337 ;; This function is called by:
  1338 ;;		_main
  1339 ;; This function uses a non-reentrant model
  1340 ;;
  1341                           
  1342                           	psect	text5
  1343   001B00                     __ptext5:
  1344                           	callstack 0
  1345   001B00                     _application_initialize:
  1346                           	callstack 25
  1347   001B00  0012               	return		;funcret
  1348   001B02                     __end_of_application_initialize:
  1349                           	callstack 0
  1350                           
  1351 ;; *************** function _Timer0_Init *****************
  1352 ;; Defined at:
  1353 ;;		line 17 in file "MCAL_Layer/Timer/hal_Timer0.c"
  1354 ;; Parameters:    Size  Location     Type
  1355 ;;  timer1          2   20[COMRAM] PTR const struct .
  1356 ;;		 -> Timer1_obj(8), 
  1357 ;; Auto vars:     Size  Location     Type
  1358 ;;  ret             1   24[COMRAM] unsigned char 
  1359 ;; Return value:  Size  Location     Type
  1360 ;;                  1    wreg      unsigned char 
  1361 ;; Registers used:
  1362 ;;		wreg, fsr2l, fsr2h, status,2, status,0, cstack
  1363 ;; Tracked objects:
  1364 ;;		On entry : 0/0
  1365 ;;		On exit  : 0/0
  1366 ;;		Unchanged: 0/0
  1367 ;; Data sizes:     COMRAM   BANK0   BANK1   BANK2   BANK3   BANK4   BANK5   BANK6   BANK7   BANK8   BANK9  BANK10  BANK1
      +1  BANK12  BANK13  BANK14  BANK15
  1368 ;;      Params:         2       0       0       0       0       0       0       0       0       0       0       0       
      +0       0       0       0       0
  1369 ;;      Locals:         1       0       0       0       0       0       0       0       0       0       0       0       
      +0       0       0       0       0
  1370 ;;      Temps:          2       0       0       0       0       0       0       0       0       0       0       0       
      +0       0       0       0       0
  1371 ;;      Totals:         5       0       0       0       0       0       0       0       0       0       0       0       
      +0       0       0       0       0
  1372 ;;Total ram usage:        5 bytes
  1373 ;; Hardware stack levels used: 1
  1374 ;; Hardware stack levels required when called: 6
  1375 ;; This function calls:
  1376 ;;		_Timer0_Mode_Select
  1377 ;;		_Timer0_Prescaler_Config
  1378 ;;		_Timer0_Register_Size
  1379 ;; This function is called by:
  1380 ;;		_main
  1381 ;; This function uses a non-reentrant model
  1382 ;;
  1383                           
  1384                           	psect	text6
  1385   00157E                     __ptext6:
  1386                           	callstack 0
  1387   00157E                     _Timer0_Init:
  1388                           	callstack 24
  1389   00157E                     
  1390                           ;MCAL_Layer/Timer/hal_Timer0.c: 18: Std_ReturnType ret = (Std_ReturnType)0x01;
  1391   00157E  0E01               	movlw	1
  1392   001580  6E6B               	movwf	Timer0_Init@ret^0,c
  1393   001582                     
  1394                           ;MCAL_Layer/Timer/hal_Timer0.c: 19: if(timer1 == ((void*)0)){
  1395   001582  5067               	movf	Timer0_Init@timer1^0,w,c
  1396   001584  1068               	iorwf	(Timer0_Init@timer1+1)^0,w,c
  1397   001586  A4D8               	btfss	status,2,c
  1398   001588  EFC8  F00A         	goto	u2521
  1399   00158C  EFCA  F00A         	goto	u2520
  1400   001590                     u2521:
  1401   001590  EFCE  F00A         	goto	l933
  1402   001594                     u2520:
  1403   001594                     
  1404                           ;MCAL_Layer/Timer/hal_Timer0.c: 20: ret = (Std_ReturnType)0x00;
  1405   001594  0E00               	movlw	0
  1406   001596  6E6B               	movwf	Timer0_Init@ret^0,c
  1407                           
  1408                           ;MCAL_Layer/Timer/hal_Timer0.c: 21: }
  1409   001598  EF0F  F00B         	goto	l3683
  1410   00159C                     l933:
  1411                           
  1412                           ;MCAL_Layer/Timer/hal_Timer0.c: 23:   (T0CONbits.TMR0ON = 0);
  1413   00159C  9ED5               	bcf	213,7,c	;volatile
  1414   00159E                     
  1415                           ;MCAL_Layer/Timer/hal_Timer0.c: 24:   Timer0_Prescaler_Config(timer1);
  1416   00159E  C067  F064         	movff	Timer0_Init@timer1,Timer0_Prescaler_Config@timer1
  1417   0015A2  C068  F065         	movff	Timer0_Init@timer1+1,Timer0_Prescaler_Config@timer1+1
  1418   0015A6  EC4A  F00C         	call	_Timer0_Prescaler_Config	;wreg free
  1419                           
  1420                           ;MCAL_Layer/Timer/hal_Timer0.c: 25:   Timer0_Mode_Select(timer1);
  1421   0015AA  C067  F064         	movff	Timer0_Init@timer1,Timer0_Mode_Select@timer1
  1422   0015AE  C068  F065         	movff	Timer0_Init@timer1+1,Timer0_Mode_Select@timer1+1
  1423   0015B2  EC9B  F00B         	call	_Timer0_Mode_Select	;wreg free
  1424                           
  1425                           ;MCAL_Layer/Timer/hal_Timer0.c: 26:   Timer0_Register_Size(timer1);
  1426   0015B6  C067  F064         	movff	Timer0_Init@timer1,Timer0_Register_Size@timer1
  1427   0015BA  C068  F065         	movff	Timer0_Init@timer1+1,Timer0_Register_Size@timer1+1
  1428   0015BE  ECC3  F00C         	call	_Timer0_Register_Size	;wreg free
  1429   0015C2                     
  1430                           ;MCAL_Layer/Timer/hal_Timer0.c: 27:   TMR0H = (timer1->timer0_preload_value)>>8;
  1431   0015C2  EE20 F005          	lfsr	2,5
  1432   0015C6  5067               	movf	Timer0_Init@timer1^0,w,c
  1433   0015C8  26D9               	addwf	fsr2l,f,c
  1434   0015CA  5068               	movf	(Timer0_Init@timer1+1)^0,w,c
  1435   0015CC  22DA               	addwfc	fsr2h,f,c
  1436   0015CE  CFDE F069          	movff	postinc2,??_Timer0_Init
  1437   0015D2  CFDD F06A          	movff	postdec2,??_Timer0_Init+1
  1438   0015D6  C06A  F069         	movff	??_Timer0_Init+1,??_Timer0_Init
  1439   0015DA  6A6A               	clrf	(??_Timer0_Init+1)^0,c
  1440   0015DC  5069               	movf	??_Timer0_Init^0,w,c
  1441   0015DE  6ED7               	movwf	215,c	;volatile
  1442   0015E0                     
  1443                           ;MCAL_Layer/Timer/hal_Timer0.c: 28:   TMR0L = (uint_8)(timer1->timer0_preload_value);
  1444   0015E0  EE20 F005          	lfsr	2,5
  1445   0015E4  5067               	movf	Timer0_Init@timer1^0,w,c
  1446   0015E6  26D9               	addwf	fsr2l,f,c
  1447   0015E8  5068               	movf	(Timer0_Init@timer1+1)^0,w,c
  1448   0015EA  22DA               	addwfc	fsr2h,f,c
  1449   0015EC  50DF               	movf	indf2,w,c
  1450   0015EE  6ED6               	movwf	214,c	;volatile
  1451   0015F0                     
  1452                           ;MCAL_Layer/Timer/hal_Timer0.c: 29:   timer0_preload = timer1->timer0_preload_value;
  1453   0015F0  EE20 F005          	lfsr	2,5
  1454   0015F4  5067               	movf	Timer0_Init@timer1^0,w,c
  1455   0015F6  26D9               	addwf	fsr2l,f,c
  1456   0015F8  5068               	movf	(Timer0_Init@timer1+1)^0,w,c
  1457   0015FA  22DA               	addwfc	fsr2h,f,c
  1458   0015FC  CFDE F007          	movff	postinc2,_timer0_preload
  1459   001600  CFDD F008          	movff	postdec2,_timer0_preload+1
  1460   001604                     
  1461                           ;MCAL_Layer/Timer/hal_Timer0.c: 31:   (INTCONbits.TMR0IE = 1);
  1462   001604  8AF2               	bsf	242,5,c	;volatile
  1463   001606                     
  1464                           ;MCAL_Layer/Timer/hal_Timer0.c: 32:   (INTCONbits.TMR0IF = 0);
  1465   001606  94F2               	bcf	242,2,c	;volatile
  1466   001608                     
  1467                           ;MCAL_Layer/Timer/hal_Timer0.c: 33:   TMR0_Interrupt_Hundeler = timer1->TMR0_Interrupt_H
      +                          undeler;
  1468   001608  C067  FFD9         	movff	Timer0_Init@timer1,fsr2l
  1469   00160C  C068  FFDA         	movff	Timer0_Init@timer1+1,fsr2h
  1470   001610  CFDE F009          	movff	postinc2,_TMR0_Interrupt_Hundeler
  1471   001614  CFDD F00A          	movff	postdec2,_TMR0_Interrupt_Hundeler+1
  1472   001618                     
  1473                           ;MCAL_Layer/Timer/hal_Timer0.c: 45:   (INTCONbits.GIE = 1);
  1474   001618  8EF2               	bsf	242,7,c	;volatile
  1475   00161A                     
  1476                           ;MCAL_Layer/Timer/hal_Timer0.c: 46:   (INTCONbits.PEIE = 0);
  1477   00161A  9CF2               	bcf	242,6,c	;volatile
  1478   00161C                     
  1479                           ;MCAL_Layer/Timer/hal_Timer0.c: 49:   (T0CONbits.TMR0ON = 1);
  1480   00161C  8ED5               	bsf	213,7,c	;volatile
  1481   00161E                     l3683:
  1482                           
  1483                           ;MCAL_Layer/Timer/hal_Timer0.c: 51: return ret;
  1484   00161E  506B               	movf	Timer0_Init@ret^0,w,c
  1485   001620  0012               	return		;funcret
  1486   001622                     __end_of_Timer0_Init:
  1487                           	callstack 0
  1488                           
  1489 ;; *************** function _Timer0_Register_Size *****************
  1490 ;; Defined at:
  1491 ;;		line 132 in file "MCAL_Layer/Timer/hal_Timer0.c"
  1492 ;; Parameters:    Size  Location     Type
  1493 ;;  timer1          2   17[COMRAM] PTR const struct .
  1494 ;;		 -> Timer1_obj(8), 
  1495 ;; Auto vars:     Size  Location     Type
  1496 ;;		None
  1497 ;; Return value:  Size  Location     Type
  1498 ;;                  1    wreg      void 
  1499 ;; Registers used:
  1500 ;;		wreg, fsr2l, fsr2h, status,2, status,0
  1501 ;; Tracked objects:
  1502 ;;		On entry : 0/0
  1503 ;;		On exit  : 0/0
  1504 ;;		Unchanged: 0/0
  1505 ;; Data sizes:     COMRAM   BANK0   BANK1   BANK2   BANK3   BANK4   BANK5   BANK6   BANK7   BANK8   BANK9  BANK10  BANK1
      +1  BANK12  BANK13  BANK14  BANK15
  1506 ;;      Params:         2       0       0       0       0       0       0       0       0       0       0       0       
      +0       0       0       0       0
  1507 ;;      Locals:         0       0       0       0       0       0       0       0       0       0       0       0       
      +0       0       0       0       0
  1508 ;;      Temps:          0       0       0       0       0       0       0       0       0       0       0       0       
      +0       0       0       0       0
  1509 ;;      Totals:         2       0       0       0       0       0       0       0       0       0       0       0       
      +0       0       0       0       0
  1510 ;;Total ram usage:        2 bytes
  1511 ;; Hardware stack levels used: 1
  1512 ;; Hardware stack levels required when called: 5
  1513 ;; This function calls:
  1514 ;;		Nothing
  1515 ;; This function is called by:
  1516 ;;		_Timer0_Init
  1517 ;; This function uses a non-reentrant model
  1518 ;;
  1519                           
  1520                           	psect	text7
  1521   001986                     __ptext7:
  1522                           	callstack 0
  1523   001986                     _Timer0_Register_Size:
  1524                           	callstack 24
  1525   001986                     
  1526                           ;MCAL_Layer/Timer/hal_Timer0.c: 133:     if(timer1->timer0_register_size == 1){
  1527   001986  EE20 F004          	lfsr	2,4
  1528   00198A  5064               	movf	Timer0_Register_Size@timer1^0,w,c
  1529   00198C  26D9               	addwf	fsr2l,f,c
  1530   00198E  5065               	movf	(Timer0_Register_Size@timer1+1)^0,w,c
  1531   001990  22DA               	addwfc	fsr2h,f,c
  1532   001992  A6DF               	btfss	indf2,3,c
  1533   001994  EFCE  F00C         	goto	u2331
  1534   001998  EFD0  F00C         	goto	u2330
  1535   00199C                     u2331:
  1536   00199C  EFD3  F00C         	goto	l3479
  1537   0019A0                     u2330:
  1538   0019A0                     
  1539                           ;MCAL_Layer/Timer/hal_Timer0.c: 134:         (T0CONbits.T08BIT = 1);
  1540   0019A0  8CD5               	bsf	213,6,c	;volatile
  1541                           
  1542                           ;MCAL_Layer/Timer/hal_Timer0.c: 135:     }
  1543   0019A2  EFE1  F00C         	goto	l978
  1544   0019A6                     l3479:
  1545   0019A6  EE20 F004          	lfsr	2,4
  1546   0019AA  5064               	movf	Timer0_Register_Size@timer1^0,w,c
  1547   0019AC  26D9               	addwf	fsr2l,f,c
  1548   0019AE  5065               	movf	(Timer0_Register_Size@timer1+1)^0,w,c
  1549   0019B0  22DA               	addwfc	fsr2h,f,c
  1550   0019B2  B6DF               	btfsc	indf2,3,c
  1551   0019B4  EFDE  F00C         	goto	u2341
  1552   0019B8  EFE0  F00C         	goto	u2340
  1553   0019BC                     u2341:
  1554   0019BC  EFE1  F00C         	goto	l978
  1555   0019C0                     u2340:
  1556   0019C0                     
  1557                           ;MCAL_Layer/Timer/hal_Timer0.c: 137:         (T0CONbits.T08BIT = 0);
  1558   0019C0  9CD5               	bcf	213,6,c	;volatile
  1559   0019C2                     l978:
  1560   0019C2  0012               	return		;funcret
  1561   0019C4                     __end_of_Timer0_Register_Size:
  1562                           	callstack 0
  1563                           
  1564 ;; *************** function _Timer0_Prescaler_Config *****************
  1565 ;; Defined at:
  1566 ;;		line 101 in file "MCAL_Layer/Timer/hal_Timer0.c"
  1567 ;; Parameters:    Size  Location     Type
  1568 ;;  timer1          2   17[COMRAM] PTR const struct .
  1569 ;;		 -> Timer1_obj(8), 
  1570 ;; Auto vars:     Size  Location     Type
  1571 ;;		None
  1572 ;; Return value:  Size  Location     Type
  1573 ;;                  1    wreg      void 
  1574 ;; Registers used:
  1575 ;;		wreg, fsr2l, fsr2h, status,2, status,0
  1576 ;; Tracked objects:
  1577 ;;		On entry : 0/0
  1578 ;;		On exit  : 0/0
  1579 ;;		Unchanged: 0/0
  1580 ;; Data sizes:     COMRAM   BANK0   BANK1   BANK2   BANK3   BANK4   BANK5   BANK6   BANK7   BANK8   BANK9  BANK10  BANK1
      +1  BANK12  BANK13  BANK14  BANK15
  1581 ;;      Params:         2       0       0       0       0       0       0       0       0       0       0       0       
      +0       0       0       0       0
  1582 ;;      Locals:         0       0       0       0       0       0       0       0       0       0       0       0       
      +0       0       0       0       0
  1583 ;;      Temps:          1       0       0       0       0       0       0       0       0       0       0       0       
      +0       0       0       0       0
  1584 ;;      Totals:         3       0       0       0       0       0       0       0       0       0       0       0       
      +0       0       0       0       0
  1585 ;;Total ram usage:        3 bytes
  1586 ;; Hardware stack levels used: 1
  1587 ;; Hardware stack levels required when called: 5
  1588 ;; This function calls:
  1589 ;;		Nothing
  1590 ;; This function is called by:
  1591 ;;		_Timer0_Init
  1592 ;; This function uses a non-reentrant model
  1593 ;;
  1594                           
  1595                           	psect	text8
  1596   001894                     __ptext8:
  1597                           	callstack 0
  1598   001894                     _Timer0_Prescaler_Config:
  1599                           	callstack 24
  1600   001894                     
  1601                           ;MCAL_Layer/Timer/hal_Timer0.c: 102:     if(timer1->timer0_prescaler_enable == 0){
  1602   001894  EE20 F004          	lfsr	2,4
  1603   001898  5064               	movf	Timer0_Prescaler_Config@timer1^0,w,c
  1604   00189A  26D9               	addwf	fsr2l,f,c
  1605   00189C  5065               	movf	(Timer0_Prescaler_Config@timer1+1)^0,w,c
  1606   00189E  22DA               	addwfc	fsr2h,f,c
  1607   0018A0  B4DF               	btfsc	indf2,2,c
  1608   0018A2  EF55  F00C         	goto	u2271
  1609   0018A6  EF57  F00C         	goto	u2270
  1610   0018AA                     u2271:
  1611   0018AA  EF67  F00C         	goto	l3455
  1612   0018AE                     u2270:
  1613   0018AE                     
  1614                           ;MCAL_Layer/Timer/hal_Timer0.c: 103:         (T0CONbits.PSA = 0);
  1615   0018AE  96D5               	bcf	213,3,c	;volatile
  1616   0018B0                     
  1617                           ;MCAL_Layer/Timer/hal_Timer0.c: 104:         T0CONbits.T0PS = timer1->prescaler_value;
  1618   0018B0  EE20 F003          	lfsr	2,3
  1619   0018B4  5064               	movf	Timer0_Prescaler_Config@timer1^0,w,c
  1620   0018B6  26D9               	addwf	fsr2l,f,c
  1621   0018B8  5065               	movf	(Timer0_Prescaler_Config@timer1+1)^0,w,c
  1622   0018BA  22DA               	addwfc	fsr2h,f,c
  1623   0018BC  50DF               	movf	indf2,w,c
  1624   0018BE  6E66               	movwf	??_Timer0_Prescaler_Config^0,c
  1625   0018C0  50D5               	movf	213,w,c	;volatile
  1626   0018C2  1866               	xorwf	??_Timer0_Prescaler_Config^0,w,c
  1627   0018C4  0BF8               	andlw	-8
  1628   0018C6  1866               	xorwf	??_Timer0_Prescaler_Config^0,w,c
  1629   0018C8  6ED5               	movwf	213,c	;volatile
  1630                           
  1631                           ;MCAL_Layer/Timer/hal_Timer0.c: 105:     }
  1632   0018CA  EF75  F00C         	goto	l961
  1633   0018CE                     l3455:
  1634   0018CE  EE20 F004          	lfsr	2,4
  1635   0018D2  5064               	movf	Timer0_Prescaler_Config@timer1^0,w,c
  1636   0018D4  26D9               	addwf	fsr2l,f,c
  1637   0018D6  5065               	movf	(Timer0_Prescaler_Config@timer1+1)^0,w,c
  1638   0018D8  22DA               	addwfc	fsr2h,f,c
  1639   0018DA  A4DF               	btfss	indf2,2,c
  1640   0018DC  EF72  F00C         	goto	u2281
  1641   0018E0  EF74  F00C         	goto	u2280
  1642   0018E4                     u2281:
  1643   0018E4  EF75  F00C         	goto	l961
  1644   0018E8                     u2280:
  1645   0018E8                     
  1646                           ;MCAL_Layer/Timer/hal_Timer0.c: 107:     {;MCAL_Layer/Timer/hal_Timer0.c: 108:     (T0CO
      +                          Nbits.PSA = 1);
  1647   0018E8  86D5               	bsf	213,3,c	;volatile
  1648   0018EA                     l961:
  1649   0018EA  0012               	return		;funcret
  1650   0018EC                     __end_of_Timer0_Prescaler_Config:
  1651                           	callstack 0
  1652                           
  1653 ;; *************** function _Timer0_Mode_Select *****************
  1654 ;; Defined at:
  1655 ;;		line 114 in file "MCAL_Layer/Timer/hal_Timer0.c"
  1656 ;; Parameters:    Size  Location     Type
  1657 ;;  timer1          2   17[COMRAM] PTR const struct .
  1658 ;;		 -> Timer1_obj(8), 
  1659 ;; Auto vars:     Size  Location     Type
  1660 ;;		None
  1661 ;; Return value:  Size  Location     Type
  1662 ;;                  1    wreg      void 
  1663 ;; Registers used:
  1664 ;;		wreg, fsr2l, fsr2h, status,2, status,0
  1665 ;; Tracked objects:
  1666 ;;		On entry : 0/0
  1667 ;;		On exit  : 0/0
  1668 ;;		Unchanged: 0/0
  1669 ;; Data sizes:     COMRAM   BANK0   BANK1   BANK2   BANK3   BANK4   BANK5   BANK6   BANK7   BANK8   BANK9  BANK10  BANK1
      +1  BANK12  BANK13  BANK14  BANK15
  1670 ;;      Params:         2       0       0       0       0       0       0       0       0       0       0       0       
      +0       0       0       0       0
  1671 ;;      Locals:         0       0       0       0       0       0       0       0       0       0       0       0       
      +0       0       0       0       0
  1672 ;;      Temps:          0       0       0       0       0       0       0       0       0       0       0       0       
      +0       0       0       0       0
  1673 ;;      Totals:         2       0       0       0       0       0       0       0       0       0       0       0       
      +0       0       0       0       0
  1674 ;;Total ram usage:        2 bytes
  1675 ;; Hardware stack levels used: 1
  1676 ;; Hardware stack levels required when called: 5
  1677 ;; This function calls:
  1678 ;;		Nothing
  1679 ;; This function is called by:
  1680 ;;		_Timer0_Init
  1681 ;; This function uses a non-reentrant model
  1682 ;;
  1683                           
  1684                           	psect	text9
  1685   001736                     __ptext9:
  1686                           	callstack 0
  1687   001736                     _Timer0_Mode_Select:
  1688                           	callstack 24
  1689   001736                     
  1690                           ;MCAL_Layer/Timer/hal_Timer0.c: 115:     if(timer1->timer0_mode == 1){
  1691   001736  EE20 F004          	lfsr	2,4
  1692   00173A  5064               	movf	Timer0_Mode_Select@timer1^0,w,c
  1693   00173C  26D9               	addwf	fsr2l,f,c
  1694   00173E  5065               	movf	(Timer0_Mode_Select@timer1+1)^0,w,c
  1695   001740  22DA               	addwfc	fsr2h,f,c
  1696   001742  A2DF               	btfss	indf2,1,c
  1697   001744  EFA6  F00B         	goto	u2291
  1698   001748  EFA8  F00B         	goto	u2290
  1699   00174C                     u2291:
  1700   00174C  EFC9  F00B         	goto	l3471
  1701   001750                     u2290:
  1702   001750                     
  1703                           ;MCAL_Layer/Timer/hal_Timer0.c: 116:         (T0CONbits.T0CS = 1);
  1704   001750  8AD5               	bsf	213,5,c	;volatile
  1705   001752                     
  1706                           ;MCAL_Layer/Timer/hal_Timer0.c: 117:         if(timer1->timer0_conter_edge == 0){
  1707   001752  EE20 F004          	lfsr	2,4
  1708   001756  5064               	movf	Timer0_Mode_Select@timer1^0,w,c
  1709   001758  26D9               	addwf	fsr2l,f,c
  1710   00175A  5065               	movf	(Timer0_Mode_Select@timer1+1)^0,w,c
  1711   00175C  22DA               	addwfc	fsr2h,f,c
  1712   00175E  B0DF               	btfsc	indf2,0,c
  1713   001760  EFB4  F00B         	goto	u2301
  1714   001764  EFB6  F00B         	goto	u2300
  1715   001768                     u2301:
  1716   001768  EFB9  F00B         	goto	l3467
  1717   00176C                     u2300:
  1718   00176C                     
  1719                           ;MCAL_Layer/Timer/hal_Timer0.c: 118:         (T0CONbits.T0SE = 0);
  1720   00176C  98D5               	bcf	213,4,c	;volatile
  1721                           
  1722                           ;MCAL_Layer/Timer/hal_Timer0.c: 119:         }
  1723   00176E  EFD7  F00B         	goto	l971
  1724   001772                     l3467:
  1725   001772  EE20 F004          	lfsr	2,4
  1726   001776  5064               	movf	Timer0_Mode_Select@timer1^0,w,c
  1727   001778  26D9               	addwf	fsr2l,f,c
  1728   00177A  5065               	movf	(Timer0_Mode_Select@timer1+1)^0,w,c
  1729   00177C  22DA               	addwfc	fsr2h,f,c
  1730   00177E  A0DF               	btfss	indf2,0,c
  1731   001780  EFC4  F00B         	goto	u2311
  1732   001784  EFC6  F00B         	goto	u2310
  1733   001788                     u2311:
  1734   001788  EFD7  F00B         	goto	l971
  1735   00178C                     u2310:
  1736   00178C                     
  1737                           ;MCAL_Layer/Timer/hal_Timer0.c: 121:         (T0CONbits.T0SE = 1);
  1738   00178C  88D5               	bsf	213,4,c	;volatile
  1739   00178E  EFD7  F00B         	goto	l971
  1740   001792                     l3471:
  1741   001792  EE20 F004          	lfsr	2,4
  1742   001796  5064               	movf	Timer0_Mode_Select@timer1^0,w,c
  1743   001798  26D9               	addwf	fsr2l,f,c
  1744   00179A  5065               	movf	(Timer0_Mode_Select@timer1+1)^0,w,c
  1745   00179C  22DA               	addwfc	fsr2h,f,c
  1746   00179E  B2DF               	btfsc	indf2,1,c
  1747   0017A0  EFD4  F00B         	goto	u2321
  1748   0017A4  EFD6  F00B         	goto	u2320
  1749   0017A8                     u2321:
  1750   0017A8  EFD7  F00B         	goto	l971
  1751   0017AC                     u2320:
  1752   0017AC                     
  1753                           ;MCAL_Layer/Timer/hal_Timer0.c: 125:     {;MCAL_Layer/Timer/hal_Timer0.c: 126:     (T0CO
      +                          Nbits.T0CS = 0);
  1754   0017AC  9AD5               	bcf	213,5,c	;volatile
  1755   0017AE                     l971:
  1756   0017AE  0012               	return		;funcret
  1757   0017B0                     __end_of_Timer0_Mode_Select:
  1758                           	callstack 0
  1759                           
  1760 ;; *************** function _Interrupt_Manager *****************
  1761 ;; Defined at:
  1762 ;;		line 30 in file "MCAL_Layer/interrupt/mcal_interrupt_manager.c"
  1763 ;; Parameters:    Size  Location     Type
  1764 ;;		None
  1765 ;; Auto vars:     Size  Location     Type
  1766 ;;		None
  1767 ;; Return value:  Size  Location     Type
  1768 ;;                  1    wreg      void 
  1769 ;; Registers used:
  1770 ;;		wreg, fsr2l, fsr2h, status,2, status,0, pcl, pclath, pclatu, tosl, prodl, prodh, cstack
  1771 ;; Tracked objects:
  1772 ;;		On entry : 0/0
  1773 ;;		On exit  : 0/0
  1774 ;;		Unchanged: 0/0
  1775 ;; Data sizes:     COMRAM   BANK0   BANK1   BANK2   BANK3   BANK4   BANK5   BANK6   BANK7   BANK8   BANK9  BANK10  BANK1
      +1  BANK12  BANK13  BANK14  BANK15
  1776 ;;      Params:         0       0       0       0       0       0       0       0       0       0       0       0       
      +0       0       0       0       0
  1777 ;;      Locals:         0       0       0       0       0       0       0       0       0       0       0       0       
      +0       0       0       0       0
  1778 ;;      Temps:          6       0       0       0       0       0       0       0       0       0       0       0       
      +0       0       0       0       0
  1779 ;;      Totals:         6       0       0       0       0       0       0       0       0       0       0       0       
      +0       0       0       0       0
  1780 ;;Total ram usage:        6 bytes
  1781 ;; Hardware stack levels used: 1
  1782 ;; Hardware stack levels required when called: 4
  1783 ;; This function calls:
  1784 ;;		_ADC_ISR
  1785 ;;		_INT0_ISR
  1786 ;;		_INT1_ISR
  1787 ;;		_INT2_ISR
  1788 ;;		_RB4_ISR
  1789 ;;		_RB5_ISR
  1790 ;;		_RB6_ISR
  1791 ;;		_RB7_ISR
  1792 ;;		_TIMER0_ISR
  1793 ;; This function is called by:
  1794 ;;		Interrupt level 2
  1795 ;; This function uses a non-reentrant model
  1796 ;;
  1797                           
  1798                           	psect	intcode
  1799   000008                     __pintcode:
  1800                           	callstack 0
  1801   000008                     _Interrupt_Manager:
  1802                           	callstack 23
  1803                           
  1804                           ;incstack = 0
  1805   000008  826E               	bsf	int$flags,1,c	;set compiler interrupt flag (level 2)
  1806   00000A  ED04  F008         	call	int_func,f	;refresh shadow registers
  1807                           
  1808                           	psect	intcode_body
  1809   001008                     __pintcode_body:
  1810                           	callstack 23
  1811   001008                     int_func:
  1812                           	callstack 23
  1813   001008  0006               	pop		; remove dummy address from shadow register refresh
  1814   00100A  CFFA F05E          	movff	pclath,??_Interrupt_Manager
  1815   00100E  CFFB F05F          	movff	pclatu,??_Interrupt_Manager+1
  1816   001012  CFD9 F060          	movff	fsr2l,??_Interrupt_Manager+2
  1817   001016  CFDA F061          	movff	fsr2h,??_Interrupt_Manager+3
  1818   00101A  CFF3 F062          	movff	prodl,??_Interrupt_Manager+4
  1819   00101E  CFF4 F063          	movff	prodh,??_Interrupt_Manager+5
  1820   001022                     
  1821                           ;MCAL_Layer/interrupt/mcal_interrupt_manager.c: 31:     if((INTCONbits.INT0IE ==1) && (I
      +                          NTCONbits.INT0IF==1)){
  1822   001022  A8F2               	btfss	242,4,c	;volatile
  1823   001024  EF16  F008         	goto	i2u305_41
  1824   001028  EF18  F008         	goto	i2u305_40
  1825   00102C                     i2u305_41:
  1826   00102C  EF21  F008         	goto	i2l853
  1827   001030                     i2u305_40:
  1828   001030  A2F2               	btfss	242,1,c	;volatile
  1829   001032  EF1D  F008         	goto	i2u306_41
  1830   001036  EF1F  F008         	goto	i2u306_40
  1831   00103A                     i2u306_41:
  1832   00103A  EF21  F008         	goto	i2l853
  1833   00103E                     i2u306_40:
  1834   00103E                     
  1835                           ;MCAL_Layer/interrupt/mcal_interrupt_manager.c: 32:     INT0_ISR();
  1836   00103E  EC7C  F00D         	call	_INT0_ISR	;wreg free
  1837   001042                     i2l853:
  1838                           
  1839                           ;MCAL_Layer/interrupt/mcal_interrupt_manager.c: 35:     if((INTCON3bits.INT1E ==1) && (I
      +                          NTCON3bits.INT1F ==1)){
  1840   001042  A6F0               	btfss	240,3,c	;volatile
  1841   001044  EF26  F008         	goto	i2u307_41
  1842   001048  EF28  F008         	goto	i2u307_40
  1843   00104C                     i2u307_41:
  1844   00104C  EF31  F008         	goto	i2l855
  1845   001050                     i2u307_40:
  1846   001050  A0F0               	btfss	240,0,c	;volatile
  1847   001052  EF2D  F008         	goto	i2u308_41
  1848   001056  EF2F  F008         	goto	i2u308_40
  1849   00105A                     i2u308_41:
  1850   00105A  EF31  F008         	goto	i2l855
  1851   00105E                     i2u308_40:
  1852   00105E                     
  1853                           ;MCAL_Layer/interrupt/mcal_interrupt_manager.c: 36:     INT1_ISR();
  1854   00105E  EC7A  F00D         	call	_INT1_ISR	;wreg free
  1855   001062                     i2l855:
  1856                           
  1857                           ;MCAL_Layer/interrupt/mcal_interrupt_manager.c: 39:     if((INTCON3bits.INT2E ==1) && (I
      +                          NTCON3bits.INT2F ==1)){
  1858   001062  A8F0               	btfss	240,4,c	;volatile
  1859   001064  EF36  F008         	goto	i2u309_41
  1860   001068  EF38  F008         	goto	i2u309_40
  1861   00106C                     i2u309_41:
  1862   00106C  EF41  F008         	goto	i2l857
  1863   001070                     i2u309_40:
  1864   001070  A2F0               	btfss	240,1,c	;volatile
  1865   001072  EF3D  F008         	goto	i2u310_41
  1866   001076  EF3F  F008         	goto	i2u310_40
  1867   00107A                     i2u310_41:
  1868   00107A  EF41  F008         	goto	i2l857
  1869   00107E                     i2u310_40:
  1870   00107E                     
  1871                           ;MCAL_Layer/interrupt/mcal_interrupt_manager.c: 40:     INT2_ISR();
  1872   00107E  EC78  F00D         	call	_INT2_ISR	;wreg free
  1873   001082                     i2l857:
  1874                           
  1875                           ;MCAL_Layer/interrupt/mcal_interrupt_manager.c: 43:     if((INTCONbits.RBIE ==1) && (INT
      +                          CONbits.RBIF ==1) &&
  1876   001082  A6F2               	btfss	242,3,c	;volatile
  1877   001084  EF46  F008         	goto	i2u311_41
  1878   001088  EF48  F008         	goto	i2u311_40
  1879   00108C                     i2u311_41:
  1880   00108C  EF63  F008         	goto	i2l859
  1881   001090                     i2u311_40:
  1882   001090  A0F2               	btfss	242,0,c	;volatile
  1883   001092  EF4D  F008         	goto	i2u312_41
  1884   001096  EF4F  F008         	goto	i2u312_40
  1885   00109A                     i2u312_41:
  1886   00109A  EF63  F008         	goto	i2l859
  1887   00109E                     i2u312_40:
  1888   00109E  A881               	btfss	129,4,c	;volatile
  1889   0010A0  EF54  F008         	goto	i2u313_41
  1890   0010A4  EF56  F008         	goto	i2u313_40
  1891   0010A8                     i2u313_41:
  1892   0010A8  EF63  F008         	goto	i2l859
  1893   0010AC                     i2u313_40:
  1894   0010AC  0442               	decf	_RB4_Flag^0,w,c	;volatile
  1895   0010AE  A4D8               	btfss	status,2,c
  1896   0010B0  EF5C  F008         	goto	i2u314_41
  1897   0010B4  EF5E  F008         	goto	i2u314_40
  1898   0010B8                     i2u314_41:
  1899   0010B8  EF63  F008         	goto	i2l859
  1900   0010BC                     i2u314_40:
  1901   0010BC                     
  1902                           ;MCAL_Layer/interrupt/mcal_interrupt_manager.c: 44:         (PORTBbits.RB4 == HIGH)&& (R
      +                          B4_Flag== 1)){;MCAL_Layer/interrupt/mcal_interrupt_manager.c: 45:         RB4_Flag = 0;
  1903   0010BC  0E00               	movlw	0
  1904   0010BE  6E42               	movwf	_RB4_Flag^0,c	;volatile
  1905   0010C0                     
  1906                           ;MCAL_Layer/interrupt/mcal_interrupt_manager.c: 46:         RB4_ISR(1);
  1907   0010C0  0E01               	movlw	1
  1908   0010C2  EC6B  F00D         	call	_RB4_ISR
  1909   0010C6                     i2l859:
  1910                           
  1911                           ;MCAL_Layer/interrupt/mcal_interrupt_manager.c: 49:     if((INTCONbits.RBIE ==1) && (INT
      +                          CONbits.RBIF ==1)&&
  1912   0010C6  A6F2               	btfss	242,3,c	;volatile
  1913   0010C8  EF68  F008         	goto	i2u315_41
  1914   0010CC  EF6A  F008         	goto	i2u315_40
  1915   0010D0                     i2u315_41:
  1916   0010D0  EF85  F008         	goto	i2l861
  1917   0010D4                     i2u315_40:
  1918   0010D4  A0F2               	btfss	242,0,c	;volatile
  1919   0010D6  EF6F  F008         	goto	i2u316_41
  1920   0010DA  EF71  F008         	goto	i2u316_40
  1921   0010DE                     i2u316_41:
  1922   0010DE  EF85  F008         	goto	i2l861
  1923   0010E2                     i2u316_40:
  1924   0010E2  B881               	btfsc	129,4,c	;volatile
  1925   0010E4  EF76  F008         	goto	i2u317_41
  1926   0010E8  EF78  F008         	goto	i2u317_40
  1927   0010EC                     i2u317_41:
  1928   0010EC  EF85  F008         	goto	i2l861
  1929   0010F0                     i2u317_40:
  1930   0010F0  5042               	movf	_RB4_Flag^0,w,c	;volatile
  1931   0010F2  A4D8               	btfss	status,2,c
  1932   0010F4  EF7E  F008         	goto	i2u318_41
  1933   0010F8  EF80  F008         	goto	i2u318_40
  1934   0010FC                     i2u318_41:
  1935   0010FC  EF85  F008         	goto	i2l861
  1936   001100                     i2u318_40:
  1937   001100                     
  1938                           ;MCAL_Layer/interrupt/mcal_interrupt_manager.c: 50:        (PORTBbits.RB4 == LOW)&& (RB4
      +                          _Flag== 0)){;MCAL_Layer/interrupt/mcal_interrupt_manager.c: 51:         RB4_Flag = 1;
  1939   001100  0E01               	movlw	1
  1940   001102  6E42               	movwf	_RB4_Flag^0,c	;volatile
  1941   001104                     
  1942                           ;MCAL_Layer/interrupt/mcal_interrupt_manager.c: 52:         RB4_ISR(0);
  1943   001104  0E00               	movlw	0
  1944   001106  EC6B  F00D         	call	_RB4_ISR
  1945   00110A                     i2l861:
  1946                           
  1947                           ;MCAL_Layer/interrupt/mcal_interrupt_manager.c: 55:     if((INTCONbits.RBIE ==1) && (INT
      +                          CONbits.RBIF ==1) &&
  1948   00110A  A6F2               	btfss	242,3,c	;volatile
  1949   00110C  EF8A  F008         	goto	i2u319_41
  1950   001110  EF8C  F008         	goto	i2u319_40
  1951   001114                     i2u319_41:
  1952   001114  EFA7  F008         	goto	i2l863
  1953   001118                     i2u319_40:
  1954   001118  A0F2               	btfss	242,0,c	;volatile
  1955   00111A  EF91  F008         	goto	i2u320_41
  1956   00111E  EF93  F008         	goto	i2u320_40
  1957   001122                     i2u320_41:
  1958   001122  EFA7  F008         	goto	i2l863
  1959   001126                     i2u320_40:
  1960   001126  AA81               	btfss	129,5,c	;volatile
  1961   001128  EF98  F008         	goto	i2u321_41
  1962   00112C  EF9A  F008         	goto	i2u321_40
  1963   001130                     i2u321_41:
  1964   001130  EFA7  F008         	goto	i2l863
  1965   001134                     i2u321_40:
  1966   001134  0441               	decf	_RB5_Flag^0,w,c	;volatile
  1967   001136  A4D8               	btfss	status,2,c
  1968   001138  EFA0  F008         	goto	i2u322_41
  1969   00113C  EFA2  F008         	goto	i2u322_40
  1970   001140                     i2u322_41:
  1971   001140  EFA7  F008         	goto	i2l863
  1972   001144                     i2u322_40:
  1973   001144                     
  1974                           ;MCAL_Layer/interrupt/mcal_interrupt_manager.c: 56:         (PORTBbits.RB5 == HIGH)&& (R
      +                          B5_Flag== 1)){;MCAL_Layer/interrupt/mcal_interrupt_manager.c: 57:           RB5_Flag = 0
      +                          ;
  1975   001144  0E00               	movlw	0
  1976   001146  6E41               	movwf	_RB5_Flag^0,c	;volatile
  1977   001148                     
  1978                           ;MCAL_Layer/interrupt/mcal_interrupt_manager.c: 58:           RB5_ISR(1);
  1979   001148  0E01               	movlw	1
  1980   00114A  EC5E  F00D         	call	_RB5_ISR
  1981   00114E                     i2l863:
  1982                           
  1983                           ;MCAL_Layer/interrupt/mcal_interrupt_manager.c: 61:     if((INTCONbits.RBIE ==1) && (INT
      +                          CONbits.RBIF ==1)&&
  1984   00114E  A6F2               	btfss	242,3,c	;volatile
  1985   001150  EFAC  F008         	goto	i2u323_41
  1986   001154  EFAE  F008         	goto	i2u323_40
  1987   001158                     i2u323_41:
  1988   001158  EFC9  F008         	goto	i2l865
  1989   00115C                     i2u323_40:
  1990   00115C  A0F2               	btfss	242,0,c	;volatile
  1991   00115E  EFB3  F008         	goto	i2u324_41
  1992   001162  EFB5  F008         	goto	i2u324_40
  1993   001166                     i2u324_41:
  1994   001166  EFC9  F008         	goto	i2l865
  1995   00116A                     i2u324_40:
  1996   00116A  BA81               	btfsc	129,5,c	;volatile
  1997   00116C  EFBA  F008         	goto	i2u325_41
  1998   001170  EFBC  F008         	goto	i2u325_40
  1999   001174                     i2u325_41:
  2000   001174  EFC9  F008         	goto	i2l865
  2001   001178                     i2u325_40:
  2002   001178  5041               	movf	_RB5_Flag^0,w,c	;volatile
  2003   00117A  A4D8               	btfss	status,2,c
  2004   00117C  EFC2  F008         	goto	i2u326_41
  2005   001180  EFC4  F008         	goto	i2u326_40
  2006   001184                     i2u326_41:
  2007   001184  EFC9  F008         	goto	i2l865
  2008   001188                     i2u326_40:
  2009   001188                     
  2010                           ;MCAL_Layer/interrupt/mcal_interrupt_manager.c: 62:         (PORTBbits.RB5 == LOW)&& (RB
      +                          5_Flag== 0)){;MCAL_Layer/interrupt/mcal_interrupt_manager.c: 63:           RB5_Flag = 1;
  2011   001188  0E01               	movlw	1
  2012   00118A  6E41               	movwf	_RB5_Flag^0,c	;volatile
  2013   00118C                     
  2014                           ;MCAL_Layer/interrupt/mcal_interrupt_manager.c: 64:           RB5_ISR(0);
  2015   00118C  0E00               	movlw	0
  2016   00118E  EC5E  F00D         	call	_RB5_ISR
  2017   001192                     i2l865:
  2018                           
  2019                           ;MCAL_Layer/interrupt/mcal_interrupt_manager.c: 67:     if((INTCONbits.RBIE ==1) && (INT
      +                          CONbits.RBIF ==1) &&
  2020   001192  A6F2               	btfss	242,3,c	;volatile
  2021   001194  EFCE  F008         	goto	i2u327_41
  2022   001198  EFD0  F008         	goto	i2u327_40
  2023   00119C                     i2u327_41:
  2024   00119C  EFEB  F008         	goto	i2l867
  2025   0011A0                     i2u327_40:
  2026   0011A0  A0F2               	btfss	242,0,c	;volatile
  2027   0011A2  EFD5  F008         	goto	i2u328_41
  2028   0011A6  EFD7  F008         	goto	i2u328_40
  2029   0011AA                     i2u328_41:
  2030   0011AA  EFEB  F008         	goto	i2l867
  2031   0011AE                     i2u328_40:
  2032   0011AE  AC81               	btfss	129,6,c	;volatile
  2033   0011B0  EFDC  F008         	goto	i2u329_41
  2034   0011B4  EFDE  F008         	goto	i2u329_40
  2035   0011B8                     i2u329_41:
  2036   0011B8  EFEB  F008         	goto	i2l867
  2037   0011BC                     i2u329_40:
  2038   0011BC  0440               	decf	_RB6_Flag^0,w,c	;volatile
  2039   0011BE  A4D8               	btfss	status,2,c
  2040   0011C0  EFE4  F008         	goto	i2u330_41
  2041   0011C4  EFE6  F008         	goto	i2u330_40
  2042   0011C8                     i2u330_41:
  2043   0011C8  EFEB  F008         	goto	i2l867
  2044   0011CC                     i2u330_40:
  2045   0011CC                     
  2046                           ;MCAL_Layer/interrupt/mcal_interrupt_manager.c: 68:        (PORTBbits.RB6 == HIGH)&& (RB
      +                          6_Flag== 1)){;MCAL_Layer/interrupt/mcal_interrupt_manager.c: 69:           RB6_Flag = 0;
  2047   0011CC  0E00               	movlw	0
  2048   0011CE  6E40               	movwf	_RB6_Flag^0,c	;volatile
  2049   0011D0                     
  2050                           ;MCAL_Layer/interrupt/mcal_interrupt_manager.c: 70:           RB6_ISR(1);
  2051   0011D0  0E01               	movlw	1
  2052   0011D2  EC51  F00D         	call	_RB6_ISR
  2053   0011D6                     i2l867:
  2054                           
  2055                           ;MCAL_Layer/interrupt/mcal_interrupt_manager.c: 73:     if((INTCONbits.RBIE ==1) && (INT
      +                          CONbits.RBIF ==1)&&
  2056   0011D6  A6F2               	btfss	242,3,c	;volatile
  2057   0011D8  EFF0  F008         	goto	i2u331_41
  2058   0011DC  EFF2  F008         	goto	i2u331_40
  2059   0011E0                     i2u331_41:
  2060   0011E0  EF0D  F009         	goto	i2l869
  2061   0011E4                     i2u331_40:
  2062   0011E4  A0F2               	btfss	242,0,c	;volatile
  2063   0011E6  EFF7  F008         	goto	i2u332_41
  2064   0011EA  EFF9  F008         	goto	i2u332_40
  2065   0011EE                     i2u332_41:
  2066   0011EE  EF0D  F009         	goto	i2l869
  2067   0011F2                     i2u332_40:
  2068   0011F2  BC81               	btfsc	129,6,c	;volatile
  2069   0011F4  EFFE  F008         	goto	i2u333_41
  2070   0011F8  EF00  F009         	goto	i2u333_40
  2071   0011FC                     i2u333_41:
  2072   0011FC  EF0D  F009         	goto	i2l869
  2073   001200                     i2u333_40:
  2074   001200  5040               	movf	_RB6_Flag^0,w,c	;volatile
  2075   001202  A4D8               	btfss	status,2,c
  2076   001204  EF06  F009         	goto	i2u334_41
  2077   001208  EF08  F009         	goto	i2u334_40
  2078   00120C                     i2u334_41:
  2079   00120C  EF0D  F009         	goto	i2l869
  2080   001210                     i2u334_40:
  2081   001210                     
  2082                           ;MCAL_Layer/interrupt/mcal_interrupt_manager.c: 74:         (PORTBbits.RB6 == LOW)&& (RB
      +                          6_Flag== 0)){;MCAL_Layer/interrupt/mcal_interrupt_manager.c: 75:           RB6_Flag = 1;
  2083   001210  0E01               	movlw	1
  2084   001212  6E40               	movwf	_RB6_Flag^0,c	;volatile
  2085   001214                     
  2086                           ;MCAL_Layer/interrupt/mcal_interrupt_manager.c: 76:           RB6_ISR(0);
  2087   001214  0E00               	movlw	0
  2088   001216  EC51  F00D         	call	_RB6_ISR
  2089   00121A                     i2l869:
  2090                           
  2091                           ;MCAL_Layer/interrupt/mcal_interrupt_manager.c: 79:     if((INTCONbits.RBIE ==1) && (INT
      +                          CONbits.RBIF ==1) &&
  2092   00121A  A6F2               	btfss	242,3,c	;volatile
  2093   00121C  EF12  F009         	goto	i2u335_41
  2094   001220  EF14  F009         	goto	i2u335_40
  2095   001224                     i2u335_41:
  2096   001224  EF2F  F009         	goto	i2l871
  2097   001228                     i2u335_40:
  2098   001228  A0F2               	btfss	242,0,c	;volatile
  2099   00122A  EF19  F009         	goto	i2u336_41
  2100   00122E  EF1B  F009         	goto	i2u336_40
  2101   001232                     i2u336_41:
  2102   001232  EF2F  F009         	goto	i2l871
  2103   001236                     i2u336_40:
  2104   001236  AE81               	btfss	129,7,c	;volatile
  2105   001238  EF20  F009         	goto	i2u337_41
  2106   00123C  EF22  F009         	goto	i2u337_40
  2107   001240                     i2u337_41:
  2108   001240  EF2F  F009         	goto	i2l871
  2109   001244                     i2u337_40:
  2110   001244  043F               	decf	_RB7_Flag^0,w,c	;volatile
  2111   001246  A4D8               	btfss	status,2,c
  2112   001248  EF28  F009         	goto	i2u338_41
  2113   00124C  EF2A  F009         	goto	i2u338_40
  2114   001250                     i2u338_41:
  2115   001250  EF2F  F009         	goto	i2l871
  2116   001254                     i2u338_40:
  2117   001254                     
  2118                           ;MCAL_Layer/interrupt/mcal_interrupt_manager.c: 80:         (PORTBbits.RB7 == HIGH)&& (R
      +                          B7_Flag== 1)){;MCAL_Layer/interrupt/mcal_interrupt_manager.c: 81:           RB7_Flag = 0
      +                          ;
  2119   001254  0E00               	movlw	0
  2120   001256  6E3F               	movwf	_RB7_Flag^0,c	;volatile
  2121   001258                     
  2122                           ;MCAL_Layer/interrupt/mcal_interrupt_manager.c: 82:           RB7_ISR(1);
  2123   001258  0E01               	movlw	1
  2124   00125A  EC44  F00D         	call	_RB7_ISR
  2125   00125E                     i2l871:
  2126                           
  2127                           ;MCAL_Layer/interrupt/mcal_interrupt_manager.c: 85:     if((INTCONbits.RBIE ==1) && (INT
      +                          CONbits.RBIF ==1)&&
  2128   00125E  A6F2               	btfss	242,3,c	;volatile
  2129   001260  EF34  F009         	goto	i2u339_41
  2130   001264  EF36  F009         	goto	i2u339_40
  2131   001268                     i2u339_41:
  2132   001268  EF51  F009         	goto	i2l873
  2133   00126C                     i2u339_40:
  2134   00126C  A0F2               	btfss	242,0,c	;volatile
  2135   00126E  EF3B  F009         	goto	i2u340_41
  2136   001272  EF3D  F009         	goto	i2u340_40
  2137   001276                     i2u340_41:
  2138   001276  EF51  F009         	goto	i2l873
  2139   00127A                     i2u340_40:
  2140   00127A  BE81               	btfsc	129,7,c	;volatile
  2141   00127C  EF42  F009         	goto	i2u341_41
  2142   001280  EF44  F009         	goto	i2u341_40
  2143   001284                     i2u341_41:
  2144   001284  EF51  F009         	goto	i2l873
  2145   001288                     i2u341_40:
  2146   001288  503F               	movf	_RB7_Flag^0,w,c	;volatile
  2147   00128A  A4D8               	btfss	status,2,c
  2148   00128C  EF4A  F009         	goto	i2u342_41
  2149   001290  EF4C  F009         	goto	i2u342_40
  2150   001294                     i2u342_41:
  2151   001294  EF51  F009         	goto	i2l873
  2152   001298                     i2u342_40:
  2153   001298                     
  2154                           ;MCAL_Layer/interrupt/mcal_interrupt_manager.c: 86:        (PORTBbits.RB7 == LOW)&& (RB7
      +                          _Flag== 0)){;MCAL_Layer/interrupt/mcal_interrupt_manager.c: 87:           RB7_Flag = 1;
  2155   001298  0E01               	movlw	1
  2156   00129A  6E3F               	movwf	_RB7_Flag^0,c	;volatile
  2157   00129C                     
  2158                           ;MCAL_Layer/interrupt/mcal_interrupt_manager.c: 88:           RB7_ISR(0);
  2159   00129C  0E00               	movlw	0
  2160   00129E  EC44  F00D         	call	_RB7_ISR
  2161   0012A2                     i2l873:
  2162                           
  2163                           ;MCAL_Layer/interrupt/mcal_interrupt_manager.c: 91:     if((PIE1bits.ADIE ==1) && (PIR1b
      +                          its.ADIF==1)){
  2164   0012A2  AC9D               	btfss	157,6,c	;volatile
  2165   0012A4  EF56  F009         	goto	i2u343_41
  2166   0012A8  EF58  F009         	goto	i2u343_40
  2167   0012AC                     i2u343_41:
  2168   0012AC  EF61  F009         	goto	i2l875
  2169   0012B0                     i2u343_40:
  2170   0012B0  AC9E               	btfss	158,6,c	;volatile
  2171   0012B2  EF5D  F009         	goto	i2u344_41
  2172   0012B6  EF5F  F009         	goto	i2u344_40
  2173   0012BA                     i2u344_41:
  2174   0012BA  EF61  F009         	goto	i2l875
  2175   0012BE                     i2u344_40:
  2176   0012BE                     
  2177                           ;MCAL_Layer/interrupt/mcal_interrupt_manager.c: 92:     ADC_ISR();
  2178   0012BE  EC7E  F00D         	call	_ADC_ISR	;wreg free
  2179   0012C2                     i2l875:
  2180                           
  2181                           ;MCAL_Layer/interrupt/mcal_interrupt_manager.c: 95: if((INTCONbits.TMR0IE ==1) && (INTCO
      +                          Nbits.TMR0IF ==1)){
  2182   0012C2  AAF2               	btfss	242,5,c	;volatile
  2183   0012C4  EF66  F009         	goto	i2u345_41
  2184   0012C8  EF68  F009         	goto	i2u345_40
  2185   0012CC                     i2u345_41:
  2186   0012CC  EF71  F009         	goto	i2l878
  2187   0012D0                     i2u345_40:
  2188   0012D0  A4F2               	btfss	242,2,c	;volatile
  2189   0012D2  EF6D  F009         	goto	i2u346_41
  2190   0012D6  EF6F  F009         	goto	i2u346_40
  2191   0012DA                     i2u346_41:
  2192   0012DA  EF71  F009         	goto	i2l878
  2193   0012DE                     i2u346_40:
  2194   0012DE                     
  2195                           ;MCAL_Layer/interrupt/mcal_interrupt_manager.c: 96:     TIMER0_ISR();
  2196   0012DE  ECE2  F00C         	call	_TIMER0_ISR	;wreg free
  2197   0012E2                     i2l878:
  2198   0012E2  C063  FFF4         	movff	??_Interrupt_Manager+5,prodh
  2199   0012E6  C062  FFF3         	movff	??_Interrupt_Manager+4,prodl
  2200   0012EA  C061  FFDA         	movff	??_Interrupt_Manager+3,fsr2h
  2201   0012EE  C060  FFD9         	movff	??_Interrupt_Manager+2,fsr2l
  2202   0012F2  C05F  FFFB         	movff	??_Interrupt_Manager+1,pclatu
  2203   0012F6  C05E  FFFA         	movff	??_Interrupt_Manager,pclath
  2204   0012FA  926E               	bcf	int$flags,1,c	;clear compiler interrupt flag (level 2)
  2205   0012FC  0011               	retfie		f
  2206   0012FE                     __end_of_Interrupt_Manager:
  2207                           	callstack 0
  2208                           
  2209 ;; *************** function _TIMER0_ISR *****************
  2210 ;; Defined at:
  2211 ;;		line 92 in file "MCAL_Layer/Timer/hal_Timer0.c"
  2212 ;; Parameters:    Size  Location     Type
  2213 ;;		None
  2214 ;; Auto vars:     Size  Location     Type
  2215 ;;		None
  2216 ;; Return value:  Size  Location     Type
  2217 ;;                  1    wreg      void 
  2218 ;; Registers used:
  2219 ;;		wreg, fsr2l, fsr2h, status,2, status,0, pcl, pclath, pclatu, tosl, prodl, prodh, cstack
  2220 ;; Tracked objects:
  2221 ;;		On entry : 0/0
  2222 ;;		On exit  : 0/0
  2223 ;;		Unchanged: 0/0
  2224 ;; Data sizes:     COMRAM   BANK0   BANK1   BANK2   BANK3   BANK4   BANK5   BANK6   BANK7   BANK8   BANK9  BANK10  BANK1
      +1  BANK12  BANK13  BANK14  BANK15
  2225 ;;      Params:         0       0       0       0       0       0       0       0       0       0       0       0       
      +0       0       0       0       0
  2226 ;;      Locals:         0       0       0       0       0       0       0       0       0       0       0       0       
      +0       0       0       0       0
  2227 ;;      Temps:          0       0       0       0       0       0       0       0       0       0       0       0       
      +0       0       0       0       0
  2228 ;;      Totals:         0       0       0       0       0       0       0       0       0       0       0       0       
      +0       0       0       0       0
  2229 ;;Total ram usage:        0 bytes
  2230 ;; Hardware stack levels used: 1
  2231 ;; Hardware stack levels required when called: 3
  2232 ;; This function calls:
  2233 ;;		NULL
  2234 ;;		_Timer0_Defualt_Hundeler
  2235 ;; This function is called by:
  2236 ;;		_Interrupt_Manager
  2237 ;; This function uses a non-reentrant model
  2238 ;;
  2239                           
  2240                           	psect	text11
  2241   0019C4                     __ptext11:
  2242                           	callstack 0
  2243   0019C4                     _TIMER0_ISR:
  2244                           	callstack 23
  2245   0019C4                     
  2246                           ;MCAL_Layer/Timer/hal_Timer0.c: 93: (INTCONbits.TMR0IF = 0);
  2247   0019C4  94F2               	bcf	242,2,c	;volatile
  2248   0019C6                     
  2249                           ;MCAL_Layer/Timer/hal_Timer0.c: 94: TMR0H = (timer0_preload)>>8;
  2250   0019C6  5008               	movf	(_timer0_preload+1)^0,w,c
  2251   0019C8  6ED7               	movwf	215,c	;volatile
  2252   0019CA                     
  2253                           ;MCAL_Layer/Timer/hal_Timer0.c: 95: TMR0L = (uint_8)(timer0_preload);
  2254   0019CA  C007  FFD6         	movff	_timer0_preload,4054	;volatile
  2255   0019CE                     
  2256                           ;MCAL_Layer/Timer/hal_Timer0.c: 96: if(TMR0_Interrupt_Hundeler){
  2257   0019CE  5009               	movf	_TMR0_Interrupt_Hundeler^0,w,c
  2258   0019D0  100A               	iorwf	(_TMR0_Interrupt_Hundeler+1)^0,w,c
  2259   0019D2  B4D8               	btfsc	status,2,c
  2260   0019D4  EFEE  F00C         	goto	i2u250_41
  2261   0019D8  EFF0  F00C         	goto	i2u250_40
  2262   0019DC                     i2u250_41:
  2263   0019DC  EFFC  F00C         	goto	i2l954
  2264   0019E0                     i2u250_40:
  2265   0019E0                     
  2266                           ;MCAL_Layer/Timer/hal_Timer0.c: 97: TMR0_Interrupt_Hundeler();
  2267   0019E0  D802               	call	i2u251_48
  2268   0019E2  EFFC  F00C         	goto	i2u251_49
  2269   0019E6                     i2u251_48:
  2270   0019E6  0005               	push	
  2271   0019E8  6EFA               	movwf	pclath,c
  2272   0019EA  5009               	movf	_TMR0_Interrupt_Hundeler^0,w,c
  2273   0019EC  6EFD               	movwf	tosl,c
  2274   0019EE  500A               	movf	(_TMR0_Interrupt_Hundeler+1)^0,w,c
  2275   0019F0  6EFE               	movwf	tosh,c
  2276   0019F2  6AFF               	clrf	tosu,c
  2277   0019F4  50FA               	movf	pclath,w,c
  2278   0019F6  0012               	return		;indir
  2279   0019F8                     i2u251_49:
  2280   0019F8                     i2l954:
  2281   0019F8  0012               	return		;funcret
  2282   0019FA                     __end_of_TIMER0_ISR:
  2283                           	callstack 0
  2284                           
  2285 ;; *************** function _Timer0_Defualt_Hundeler *****************
  2286 ;; Defined at:
  2287 ;;		line 48 in file "application.c"
  2288 ;; Parameters:    Size  Location     Type
  2289 ;;		None
  2290 ;; Auto vars:     Size  Location     Type
  2291 ;;		None
  2292 ;; Return value:  Size  Location     Type
  2293 ;;                  1    wreg      void 
  2294 ;; Registers used:
  2295 ;;		wreg, fsr2l, fsr2h, status,2, status,0, prodl, prodh, cstack
  2296 ;; Tracked objects:
  2297 ;;		On entry : 0/0
  2298 ;;		On exit  : 0/0
  2299 ;;		Unchanged: 0/0
  2300 ;; Data sizes:     COMRAM   BANK0   BANK1   BANK2   BANK3   BANK4   BANK5   BANK6   BANK7   BANK8   BANK9  BANK10  BANK1
      +1  BANK12  BANK13  BANK14  BANK15
  2301 ;;      Params:         0       0       0       0       0       0       0       0       0       0       0       0       
      +0       0       0       0       0
  2302 ;;      Locals:         0       0       0       0       0       0       0       0       0       0       0       0       
      +0       0       0       0       0
  2303 ;;      Temps:          0       0       0       0       0       0       0       0       0       0       0       0       
      +0       0       0       0       0
  2304 ;;      Totals:         0       0       0       0       0       0       0       0       0       0       0       0       
      +0       0       0       0       0
  2305 ;;Total ram usage:        0 bytes
  2306 ;; Hardware stack levels used: 1
  2307 ;; Hardware stack levels required when called: 2
  2308 ;; This function calls:
  2309 ;;		_led_toggle
  2310 ;; This function is called by:
  2311 ;;		_TIMER0_ISR
  2312 ;; This function uses a non-reentrant model
  2313 ;;
  2314                           
  2315                           	psect	text12
  2316   001A2E                     __ptext12:
  2317                           	callstack 0
  2318   001A2E                     _Timer0_Defualt_Hundeler:
  2319                           	callstack 23
  2320   001A2E                     
  2321                           ;application.c: 49:     square_25hz_waveform++;
  2322   001A2E  2A23               	incf	_square_25hz_waveform^0,f,c	;volatile
  2323   001A30                     
  2324                           ;application.c: 50:     led_toggle(&led1);
  2325   001A30  0E52               	movlw	low _led1
  2326   001A32  6E5A               	movwf	led_toggle@led^0,c
  2327   001A34  0E00               	movlw	high _led1
  2328   001A36  6E5B               	movwf	(led_toggle@led+1)^0,c
  2329   001A38  EC11  F00C         	call	_led_toggle	;wreg free
  2330   001A3C                     
  2331                           ;application.c: 51:     if(square_25hz_waveform == 2){
  2332   001A3C  0E02               	movlw	2
  2333   001A3E  1823               	xorwf	_square_25hz_waveform^0,w,c	;volatile
  2334   001A40  A4D8               	btfss	status,2,c
  2335   001A42  EF25  F00D         	goto	i2u226_41
  2336   001A46  EF27  F00D         	goto	i2u226_40
  2337   001A4A                     i2u226_41:
  2338   001A4A  EF2F  F00D         	goto	i2l912
  2339   001A4E                     i2u226_40:
  2340   001A4E                     
  2341                           ;application.c: 52:       square_25hz_waveform = 0;
  2342   001A4E  0E00               	movlw	0
  2343   001A50  6E23               	movwf	_square_25hz_waveform^0,c	;volatile
  2344   001A52                     
  2345                           ;application.c: 53:       led_toggle(&led2);
  2346   001A52  0E51               	movlw	low _led2
  2347   001A54  6E5A               	movwf	led_toggle@led^0,c
  2348   001A56  0E00               	movlw	high _led2
  2349   001A58  6E5B               	movwf	(led_toggle@led+1)^0,c
  2350   001A5A  EC11  F00C         	call	_led_toggle	;wreg free
  2351   001A5E                     i2l912:
  2352   001A5E  0012               	return		;funcret
  2353   001A60                     __end_of_Timer0_Defualt_Hundeler:
  2354                           	callstack 0
  2355                           
  2356 ;; *************** function _led_toggle *****************
  2357 ;; Defined at:
  2358 ;;		line 74 in file "ECU_Layer/LED/ecu_led.c"
  2359 ;; Parameters:    Size  Location     Type
  2360 ;;  led             2    7[COMRAM] PTR const struct .
  2361 ;;		 -> led2(1), led1(1), 
  2362 ;; Auto vars:     Size  Location     Type
  2363 ;;  pin_obj         1   10[COMRAM] struct .
  2364 ;;  ret             1    0        unsigned char 
  2365 ;; Return value:  Size  Location     Type
  2366 ;;                  1    wreg      unsigned char 
  2367 ;; Registers used:
  2368 ;;		wreg, fsr2l, fsr2h, status,2, status,0, prodl, prodh, cstack
  2369 ;; Tracked objects:
  2370 ;;		On entry : 0/0
  2371 ;;		On exit  : 0/0
  2372 ;;		Unchanged: 0/0
  2373 ;; Data sizes:     COMRAM   BANK0   BANK1   BANK2   BANK3   BANK4   BANK5   BANK6   BANK7   BANK8   BANK9  BANK10  BANK1
      +1  BANK12  BANK13  BANK14  BANK15
  2374 ;;      Params:         2       0       0       0       0       0       0       0       0       0       0       0       
      +0       0       0       0       0
  2375 ;;      Locals:         1       0       0       0       0       0       0       0       0       0       0       0       
      +0       0       0       0       0
  2376 ;;      Temps:          1       0       0       0       0       0       0       0       0       0       0       0       
      +0       0       0       0       0
  2377 ;;      Totals:         4       0       0       0       0       0       0       0       0       0       0       0       
      +0       0       0       0       0
  2378 ;;Total ram usage:        4 bytes
  2379 ;; Hardware stack levels used: 1
  2380 ;; Hardware stack levels required when called: 1
  2381 ;; This function calls:
  2382 ;;		_gpio_pin_toggle_logic
  2383 ;; This function is called by:
  2384 ;;		_Timer0_Defualt_Hundeler
  2385 ;; This function uses a non-reentrant model
  2386 ;;
  2387                           
  2388                           	psect	text13
  2389   001822                     __ptext13:
  2390                           	callstack 0
  2391   001822                     _led_toggle:
  2392                           	callstack 23
  2393   001822                     
  2394                           ;ECU_Layer/LED/ecu_led.c: 76: if(led == ((void*)0)){
  2395   001822  505A               	movf	led_toggle@led^0,w,c
  2396   001824  105B               	iorwf	(led_toggle@led+1)^0,w,c
  2397   001826  A4D8               	btfss	status,2,c
  2398   001828  EF18  F00C         	goto	i2u221_41
  2399   00182C  EF1A  F00C         	goto	i2u221_40
  2400   001830                     i2u221_41:
  2401   001830  EF1C  F00C         	goto	i2l270
  2402   001834                     i2u221_40:
  2403   001834                     
  2404                           ;ECU_Layer/LED/ecu_led.c: 78: }
  2405   001834  EF49  F00C         	goto	i2l274
  2406   001838                     i2l270:
  2407                           
  2408                           ;ECU_Layer/LED/ecu_led.c: 80:      pin_config_t pin_obj = {.port = led->Port_Name,
  2409   001838  C027  F05D         	movff	led_toggle@F3063,led_toggle@pin_obj
  2410   00183C  C05A  FFD9         	movff	led_toggle@led,fsr2l
  2411   001840  C05B  FFDA         	movff	led_toggle@led+1,fsr2h
  2412   001844  50DF               	movf	223,w,c
  2413   001846  0B0F               	andlw	15
  2414   001848  6E5C               	movwf	??_led_toggle^0,c
  2415   00184A  505D               	movf	led_toggle@pin_obj^0,w,c
  2416   00184C  185C               	xorwf	??_led_toggle^0,w,c
  2417   00184E  0BF8               	andlw	-8
  2418   001850  185C               	xorwf	??_led_toggle^0,w,c
  2419   001852  6E5D               	movwf	led_toggle@pin_obj^0,c
  2420   001854  C05A  FFD9         	movff	led_toggle@led,fsr2l
  2421   001858  C05B  FFDA         	movff	led_toggle@led+1,fsr2h
  2422   00185C  38DF               	swapf	223,w,c
  2423   00185E  0B07               	andlw	7
  2424   001860  6E5C               	movwf	??_led_toggle^0,c
  2425   001862  465C               	rlncf	??_led_toggle^0,f,c
  2426   001864  465C               	rlncf	??_led_toggle^0,f,c
  2427   001866  465C               	rlncf	??_led_toggle^0,f,c
  2428   001868  505D               	movf	led_toggle@pin_obj^0,w,c
  2429   00186A  185C               	xorwf	??_led_toggle^0,w,c
  2430   00186C  0BC7               	andlw	-57
  2431   00186E  185C               	xorwf	??_led_toggle^0,w,c
  2432   001870  6E5D               	movwf	led_toggle@pin_obj^0,c
  2433   001872  9C5D               	bcf	led_toggle@pin_obj^0,6,c
  2434   001874  C05A  FFD9         	movff	led_toggle@led,fsr2l
  2435   001878  C05B  FFDA         	movff	led_toggle@led+1,fsr2h
  2436   00187C  AEDF               	btfss	indf2,7,c
  2437   00187E  D002               	bra	i2u222_45
  2438   001880  8E5D               	bsf	led_toggle@pin_obj^0,7,c
  2439   001882  D001               	bra	i2u222_47
  2440   001884                     i2u222_45:
  2441   001884  9E5D               	bcf	led_toggle@pin_obj^0,7,c
  2442   001886                     i2u222_47:
  2443   001886                     
  2444                           ;ECU_Layer/LED/ecu_led.c: 85:      gpio_pin_toggle_logic(&pin_obj);
  2445   001886  0E5D               	movlw	low led_toggle@pin_obj
  2446   001888  6E53               	movwf	gpio_pin_toggle_logic@pin_config^0,c
  2447   00188A  0E00               	movlw	high led_toggle@pin_obj
  2448   00188C  6E54               	movwf	(gpio_pin_toggle_logic@pin_config+1)^0,c
  2449   00188E  EC11  F00B         	call	_gpio_pin_toggle_logic	;wreg free
  2450   001892                     i2l274:
  2451   001892  0012               	return		;funcret
  2452   001894                     __end_of_led_toggle:
  2453                           	callstack 0
  2454                           
  2455 ;; *************** function _gpio_pin_toggle_logic *****************
  2456 ;; Defined at:
  2457 ;;		line 109 in file "MCAL_Layer/GPIO/hal_gpio.c"
  2458 ;; Parameters:    Size  Location     Type
  2459 ;;  pin_config      2    0[COMRAM] PTR const struct .
  2460 ;;		 -> led_toggle@pin_obj(1), 
  2461 ;; Auto vars:     Size  Location     Type
  2462 ;;  ret             1    0        unsigned char 
  2463 ;; Return value:  Size  Location     Type
  2464 ;;                  1    wreg      unsigned char 
  2465 ;; Registers used:
  2466 ;;		wreg, fsr2l, fsr2h, status,2, status,0, prodl, prodh
  2467 ;; Tracked objects:
  2468 ;;		On entry : 0/0
  2469 ;;		On exit  : 0/0
  2470 ;;		Unchanged: 0/0
  2471 ;; Data sizes:     COMRAM   BANK0   BANK1   BANK2   BANK3   BANK4   BANK5   BANK6   BANK7   BANK8   BANK9  BANK10  BANK1
      +1  BANK12  BANK13  BANK14  BANK15
  2472 ;;      Params:         2       0       0       0       0       0       0       0       0       0       0       0       
      +0       0       0       0       0
  2473 ;;      Locals:         0       0       0       0       0       0       0       0       0       0       0       0       
      +0       0       0       0       0
  2474 ;;      Temps:          5       0       0       0       0       0       0       0       0       0       0       0       
      +0       0       0       0       0
  2475 ;;      Totals:         7       0       0       0       0       0       0       0       0       0       0       0       
      +0       0       0       0       0
  2476 ;;Total ram usage:        7 bytes
  2477 ;; Hardware stack levels used: 1
  2478 ;; This function calls:
  2479 ;;		Nothing
  2480 ;; This function is called by:
  2481 ;;		_led_toggle
  2482 ;; This function uses a non-reentrant model
  2483 ;;
  2484                           
  2485                           	psect	text14
  2486   001622                     __ptext14:
  2487                           	callstack 0
  2488   001622                     _gpio_pin_toggle_logic:
  2489                           	callstack 23
  2490   001622                     
  2491                           ;MCAL_Layer/GPIO/hal_gpio.c: 111:       if(pin_config == ((void*)0) || pin_config->pin >
      +                           8 -1){
  2492   001622  5053               	movf	gpio_pin_toggle_logic@pin_config^0,w,c
  2493   001624  1054               	iorwf	(gpio_pin_toggle_logic@pin_config+1)^0,w,c
  2494   001626  B4D8               	btfsc	status,2,c
  2495   001628  EF18  F00B         	goto	i2u207_41
  2496   00162C  EF1A  F00B         	goto	i2u207_40
  2497   001630                     i2u207_41:
  2498   001630  EF2B  F00B         	goto	i2l3303
  2499   001634                     i2u207_40:
  2500   001634  C053  FFD9         	movff	gpio_pin_toggle_logic@pin_config,fsr2l
  2501   001638  C054  FFDA         	movff	gpio_pin_toggle_logic@pin_config+1,fsr2h
  2502   00163C  30DF               	rrcf	223,w,c
  2503   00163E  32E8               	rrcf	wreg,f,c
  2504   001640  32E8               	rrcf	wreg,f,c
  2505   001642  0B07               	andlw	7
  2506   001644  6E55               	movwf	??_gpio_pin_toggle_logic^0,c
  2507   001646  0E07               	movlw	7
  2508   001648  6455               	cpfsgt	??_gpio_pin_toggle_logic^0,c
  2509   00164A  EF29  F00B         	goto	i2u208_41
  2510   00164E  EF2B  F00B         	goto	i2u208_40
  2511   001652                     i2u208_41:
  2512   001652  EF2D  F00B         	goto	i2l3305
  2513   001656                     i2u208_40:
  2514   001656                     i2l3303:
  2515                           
  2516                           ;MCAL_Layer/GPIO/hal_gpio.c: 113:  }
  2517   001656  EF59  F00B         	goto	i2l564
  2518   00165A                     i2l3305:
  2519                           
  2520                           ;MCAL_Layer/GPIO/hal_gpio.c: 115:   (*lat_registers[pin_config->port] ^=(1<<pin_config->
      +                          pin));
  2521   00165A  C053  FFD9         	movff	gpio_pin_toggle_logic@pin_config,fsr2l
  2522   00165E  C054  FFDA         	movff	gpio_pin_toggle_logic@pin_config+1,fsr2h
  2523   001662  30DF               	rrcf	223,w,c
  2524   001664  32E8               	rrcf	wreg,f,c
  2525   001666  32E8               	rrcf	wreg,f,c
  2526   001668  0B07               	andlw	7
  2527   00166A  6E55               	movwf	??_gpio_pin_toggle_logic^0,c
  2528   00166C  0E01               	movlw	1
  2529   00166E  6E56               	movwf	(??_gpio_pin_toggle_logic+1)^0,c
  2530   001670  2A55               	incf	??_gpio_pin_toggle_logic^0,f,c
  2531   001672  EF3D  F00B         	goto	i2u209_44
  2532   001676                     i2u209_45:
  2533   001676  90D8               	bcf	status,0,c
  2534   001678  3656               	rlcf	(??_gpio_pin_toggle_logic+1)^0,f,c
  2535   00167A                     i2u209_44:
  2536   00167A  2E55               	decfsz	??_gpio_pin_toggle_logic^0,f,c
  2537   00167C  EF3B  F00B         	goto	i2u209_45
  2538   001680  C053  FFD9         	movff	gpio_pin_toggle_logic@pin_config,fsr2l
  2539   001684  C054  FFDA         	movff	gpio_pin_toggle_logic@pin_config+1,fsr2h
  2540   001688  50DF               	movf	223,w,c
  2541   00168A  0B07               	andlw	7
  2542   00168C  6E57               	movwf	(??_gpio_pin_toggle_logic+2)^0,c
  2543   00168E  5057               	movf	(??_gpio_pin_toggle_logic+2)^0,w,c
  2544   001690  0D02               	mullw	2
  2545   001692  0E2B               	movlw	low _lat_registers
  2546   001694  24F3               	addwf	243,w,c
  2547   001696  6ED9               	movwf	fsr2l,c
  2548   001698  0E00               	movlw	high _lat_registers
  2549   00169A  20F4               	addwfc	prodh,w,c
  2550   00169C  6EDA               	movwf	fsr2h,c
  2551   00169E  CFDE F058          	movff	postinc2,??_gpio_pin_toggle_logic+3
  2552   0016A2  CFDD F059          	movff	postdec2,??_gpio_pin_toggle_logic+4
  2553   0016A6  C058  FFD9         	movff	??_gpio_pin_toggle_logic+3,fsr2l
  2554   0016AA  C059  FFDA         	movff	??_gpio_pin_toggle_logic+4,fsr2h
  2555   0016AE  5056               	movf	(??_gpio_pin_toggle_logic+1)^0,w,c
  2556   0016B0  1ADF               	xorwf	indf2,f,c
  2557   0016B2                     i2l564:
  2558   0016B2  0012               	return		;funcret
  2559   0016B4                     __end_of_gpio_pin_toggle_logic:
  2560                           	callstack 0
  2561                           
  2562 ;; *************** function _RB7_ISR *****************
  2563 ;; Defined at:
  2564 ;;		line 500 in file "MCAL_Layer/interrupt/mcal_external_interrupt.c"
  2565 ;; Parameters:    Size  Location     Type
  2566 ;;  source          1    wreg     unsigned char 
  2567 ;; Auto vars:     Size  Location     Type
  2568 ;;  source          1    0[COMRAM] unsigned char 
  2569 ;; Return value:  Size  Location     Type
  2570 ;;                  1    wreg      void 
  2571 ;; Registers used:
  2572 ;;		wreg, status,2, status,0
  2573 ;; Tracked objects:
  2574 ;;		On entry : 0/0
  2575 ;;		On exit  : 0/0
  2576 ;;		Unchanged: 0/0
  2577 ;; Data sizes:     COMRAM   BANK0   BANK1   BANK2   BANK3   BANK4   BANK5   BANK6   BANK7   BANK8   BANK9  BANK10  BANK1
      +1  BANK12  BANK13  BANK14  BANK15
  2578 ;;      Params:         0       0       0       0       0       0       0       0       0       0       0       0       
      +0       0       0       0       0
  2579 ;;      Locals:         1       0       0       0       0       0       0       0       0       0       0       0       
      +0       0       0       0       0
  2580 ;;      Temps:          0       0       0       0       0       0       0       0       0       0       0       0       
      +0       0       0       0       0
  2581 ;;      Totals:         1       0       0       0       0       0       0       0       0       0       0       0       
      +0       0       0       0       0
  2582 ;;Total ram usage:        1 bytes
  2583 ;; Hardware stack levels used: 1
  2584 ;; This function calls:
  2585 ;;		Nothing
  2586 ;; This function is called by:
  2587 ;;		_Interrupt_Manager
  2588 ;; This function uses a non-reentrant model
  2589 ;;
  2590                           
  2591                           	psect	text15
  2592   001A88                     __ptext15:
  2593                           	callstack 0
  2594   001A88                     _RB7_ISR:
  2595                           	callstack 26
  2596                           
  2597                           ;incstack = 0
  2598                           ;RB7_ISR@source stored from wreg
  2599   001A88  6E53               	movwf	RB7_ISR@source^0,c
  2600   001A8A                     
  2601                           ;MCAL_Layer/interrupt/mcal_external_interrupt.c: 501:  (INTCONbits.RBIF = 0);
  2602   001A8A  90F2               	bcf	242,0,c	;volatile
  2603   001A8C                     
  2604                           ;MCAL_Layer/interrupt/mcal_external_interrupt.c: 502: if(source == 0){
  2605   001A8C  5053               	movf	RB7_ISR@source^0,w,c
  2606   001A8E  A4D8               	btfss	status,2,c
  2607   001A90  EF4C  F00D         	goto	i2u61_41
  2608   001A94  EF4E  F00D         	goto	i2u61_40
  2609   001A98                     i2u61_41:
  2610   001A98  EF50  F00D         	goto	i2l2189
  2611   001A9C                     i2u61_40:
  2612   001A9C  EF50  F00D         	goto	i2l811
  2613   001AA0                     i2l2189:
  2614   001AA0                     i2l811:
  2615   001AA0  0012               	return		;funcret
  2616   001AA2                     __end_of_RB7_ISR:
  2617                           	callstack 0
  2618                           
  2619 ;; *************** function _RB6_ISR *****************
  2620 ;; Defined at:
  2621 ;;		line 488 in file "MCAL_Layer/interrupt/mcal_external_interrupt.c"
  2622 ;; Parameters:    Size  Location     Type
  2623 ;;  source          1    wreg     unsigned char 
  2624 ;; Auto vars:     Size  Location     Type
  2625 ;;  source          1    0[COMRAM] unsigned char 
  2626 ;; Return value:  Size  Location     Type
  2627 ;;                  1    wreg      void 
  2628 ;; Registers used:
  2629 ;;		wreg, status,2, status,0
  2630 ;; Tracked objects:
  2631 ;;		On entry : 0/0
  2632 ;;		On exit  : 0/0
  2633 ;;		Unchanged: 0/0
  2634 ;; Data sizes:     COMRAM   BANK0   BANK1   BANK2   BANK3   BANK4   BANK5   BANK6   BANK7   BANK8   BANK9  BANK10  BANK1
      +1  BANK12  BANK13  BANK14  BANK15
  2635 ;;      Params:         0       0       0       0       0       0       0       0       0       0       0       0       
      +0       0       0       0       0
  2636 ;;      Locals:         1       0       0       0       0       0       0       0       0       0       0       0       
      +0       0       0       0       0
  2637 ;;      Temps:          0       0       0       0       0       0       0       0       0       0       0       0       
      +0       0       0       0       0
  2638 ;;      Totals:         1       0       0       0       0       0       0       0       0       0       0       0       
      +0       0       0       0       0
  2639 ;;Total ram usage:        1 bytes
  2640 ;; Hardware stack levels used: 1
  2641 ;; This function calls:
  2642 ;;		Nothing
  2643 ;; This function is called by:
  2644 ;;		_Interrupt_Manager
  2645 ;; This function uses a non-reentrant model
  2646 ;;
  2647                           
  2648                           	psect	text16
  2649   001AA2                     __ptext16:
  2650                           	callstack 0
  2651   001AA2                     _RB6_ISR:
  2652                           	callstack 26
  2653                           
  2654                           ;incstack = 0
  2655                           ;RB6_ISR@source stored from wreg
  2656   001AA2  6E53               	movwf	RB6_ISR@source^0,c
  2657   001AA4                     
  2658                           ;MCAL_Layer/interrupt/mcal_external_interrupt.c: 489:  (INTCONbits.RBIF = 0);
  2659   001AA4  90F2               	bcf	242,0,c	;volatile
  2660   001AA6                     
  2661                           ;MCAL_Layer/interrupt/mcal_external_interrupt.c: 490: if(source == 0){
  2662   001AA6  5053               	movf	RB6_ISR@source^0,w,c
  2663   001AA8  A4D8               	btfss	status,2,c
  2664   001AAA  EF59  F00D         	goto	i2u60_41
  2665   001AAE  EF5B  F00D         	goto	i2u60_40
  2666   001AB2                     i2u60_41:
  2667   001AB2  EF5D  F00D         	goto	i2l2175
  2668   001AB6                     i2u60_40:
  2669   001AB6  EF5D  F00D         	goto	i2l800
  2670   001ABA                     i2l2175:
  2671   001ABA                     i2l800:
  2672   001ABA  0012               	return		;funcret
  2673   001ABC                     __end_of_RB6_ISR:
  2674                           	callstack 0
  2675                           
  2676 ;; *************** function _RB5_ISR *****************
  2677 ;; Defined at:
  2678 ;;		line 476 in file "MCAL_Layer/interrupt/mcal_external_interrupt.c"
  2679 ;; Parameters:    Size  Location     Type
  2680 ;;  source          1    wreg     unsigned char 
  2681 ;; Auto vars:     Size  Location     Type
  2682 ;;  source          1    0[COMRAM] unsigned char 
  2683 ;; Return value:  Size  Location     Type
  2684 ;;                  1    wreg      void 
  2685 ;; Registers used:
  2686 ;;		wreg, status,2, status,0
  2687 ;; Tracked objects:
  2688 ;;		On entry : 0/0
  2689 ;;		On exit  : 0/0
  2690 ;;		Unchanged: 0/0
  2691 ;; Data sizes:     COMRAM   BANK0   BANK1   BANK2   BANK3   BANK4   BANK5   BANK6   BANK7   BANK8   BANK9  BANK10  BANK1
      +1  BANK12  BANK13  BANK14  BANK15
  2692 ;;      Params:         0       0       0       0       0       0       0       0       0       0       0       0       
      +0       0       0       0       0
  2693 ;;      Locals:         1       0       0       0       0       0       0       0       0       0       0       0       
      +0       0       0       0       0
  2694 ;;      Temps:          0       0       0       0       0       0       0       0       0       0       0       0       
      +0       0       0       0       0
  2695 ;;      Totals:         1       0       0       0       0       0       0       0       0       0       0       0       
      +0       0       0       0       0
  2696 ;;Total ram usage:        1 bytes
  2697 ;; Hardware stack levels used: 1
  2698 ;; This function calls:
  2699 ;;		Nothing
  2700 ;; This function is called by:
  2701 ;;		_Interrupt_Manager
  2702 ;; This function uses a non-reentrant model
  2703 ;;
  2704                           
  2705                           	psect	text17
  2706   001ABC                     __ptext17:
  2707                           	callstack 0
  2708   001ABC                     _RB5_ISR:
  2709                           	callstack 26
  2710                           
  2711                           ;incstack = 0
  2712                           ;RB5_ISR@source stored from wreg
  2713   001ABC  6E53               	movwf	RB5_ISR@source^0,c
  2714   001ABE                     
  2715                           ;MCAL_Layer/interrupt/mcal_external_interrupt.c: 477:  (INTCONbits.RBIF = 0);
  2716   001ABE  90F2               	bcf	242,0,c	;volatile
  2717   001AC0                     
  2718                           ;MCAL_Layer/interrupt/mcal_external_interrupt.c: 478: if(source == 0){
  2719   001AC0  5053               	movf	RB5_ISR@source^0,w,c
  2720   001AC2  A4D8               	btfss	status,2,c
  2721   001AC4  EF66  F00D         	goto	i2u59_41
  2722   001AC8  EF68  F00D         	goto	i2u59_40
  2723   001ACC                     i2u59_41:
  2724   001ACC  EF6A  F00D         	goto	i2l2161
  2725   001AD0                     i2u59_40:
  2726   001AD0  EF6A  F00D         	goto	i2l789
  2727   001AD4                     i2l2161:
  2728   001AD4                     i2l789:
  2729   001AD4  0012               	return		;funcret
  2730   001AD6                     __end_of_RB5_ISR:
  2731                           	callstack 0
  2732                           
  2733 ;; *************** function _RB4_ISR *****************
  2734 ;; Defined at:
  2735 ;;		line 463 in file "MCAL_Layer/interrupt/mcal_external_interrupt.c"
  2736 ;; Parameters:    Size  Location     Type
  2737 ;;  source          1    wreg     unsigned char 
  2738 ;; Auto vars:     Size  Location     Type
  2739 ;;  source          1    0[COMRAM] unsigned char 
  2740 ;; Return value:  Size  Location     Type
  2741 ;;                  1    wreg      void 
  2742 ;; Registers used:
  2743 ;;		wreg, status,2, status,0
  2744 ;; Tracked objects:
  2745 ;;		On entry : 0/0
  2746 ;;		On exit  : 0/0
  2747 ;;		Unchanged: 0/0
  2748 ;; Data sizes:     COMRAM   BANK0   BANK1   BANK2   BANK3   BANK4   BANK5   BANK6   BANK7   BANK8   BANK9  BANK10  BANK1
      +1  BANK12  BANK13  BANK14  BANK15
  2749 ;;      Params:         0       0       0       0       0       0       0       0       0       0       0       0       
      +0       0       0       0       0
  2750 ;;      Locals:         1       0       0       0       0       0       0       0       0       0       0       0       
      +0       0       0       0       0
  2751 ;;      Temps:          0       0       0       0       0       0       0       0       0       0       0       0       
      +0       0       0       0       0
  2752 ;;      Totals:         1       0       0       0       0       0       0       0       0       0       0       0       
      +0       0       0       0       0
  2753 ;;Total ram usage:        1 bytes
  2754 ;; Hardware stack levels used: 1
  2755 ;; This function calls:
  2756 ;;		Nothing
  2757 ;; This function is called by:
  2758 ;;		_Interrupt_Manager
  2759 ;; This function uses a non-reentrant model
  2760 ;;
  2761                           
  2762                           	psect	text18
  2763   001AD6                     __ptext18:
  2764                           	callstack 0
  2765   001AD6                     _RB4_ISR:
  2766                           	callstack 26
  2767                           
  2768                           ;incstack = 0
  2769                           ;RB4_ISR@source stored from wreg
  2770   001AD6  6E53               	movwf	RB4_ISR@source^0,c
  2771   001AD8                     
  2772                           ;MCAL_Layer/interrupt/mcal_external_interrupt.c: 464: (INTCONbits.RBIF = 0);
  2773   001AD8  90F2               	bcf	242,0,c	;volatile
  2774   001ADA                     
  2775                           ;MCAL_Layer/interrupt/mcal_external_interrupt.c: 466: if(source == 0){
  2776   001ADA  5053               	movf	RB4_ISR@source^0,w,c
  2777   001ADC  A4D8               	btfss	status,2,c
  2778   001ADE  EF73  F00D         	goto	i2u58_41
  2779   001AE2  EF75  F00D         	goto	i2u58_40
  2780   001AE6                     i2u58_41:
  2781   001AE6  EF77  F00D         	goto	i2l2147
  2782   001AEA                     i2u58_40:
  2783   001AEA  EF77  F00D         	goto	i2l778
  2784   001AEE                     i2l2147:
  2785   001AEE                     i2l778:
  2786   001AEE  0012               	return		;funcret
  2787   001AF0                     __end_of_RB4_ISR:
  2788                           	callstack 0
  2789                           
  2790 ;; *************** function _INT2_ISR *****************
  2791 ;; Defined at:
  2792 ;;		line 454 in file "MCAL_Layer/interrupt/mcal_external_interrupt.c"
  2793 ;; Parameters:    Size  Location     Type
  2794 ;;		None
  2795 ;; Auto vars:     Size  Location     Type
  2796 ;;		None
  2797 ;; Return value:  Size  Location     Type
  2798 ;;                  1    wreg      void 
  2799 ;; Registers used:
  2800 ;;		None
  2801 ;; Tracked objects:
  2802 ;;		On entry : 0/0
  2803 ;;		On exit  : 0/0
  2804 ;;		Unchanged: 0/0
  2805 ;; Data sizes:     COMRAM   BANK0   BANK1   BANK2   BANK3   BANK4   BANK5   BANK6   BANK7   BANK8   BANK9  BANK10  BANK1
      +1  BANK12  BANK13  BANK14  BANK15
  2806 ;;      Params:         0       0       0       0       0       0       0       0       0       0       0       0       
      +0       0       0       0       0
  2807 ;;      Locals:         0       0       0       0       0       0       0       0       0       0       0       0       
      +0       0       0       0       0
  2808 ;;      Temps:          0       0       0       0       0       0       0       0       0       0       0       0       
      +0       0       0       0       0
  2809 ;;      Totals:         0       0       0       0       0       0       0       0       0       0       0       0       
      +0       0       0       0       0
  2810 ;;Total ram usage:        0 bytes
  2811 ;; Hardware stack levels used: 1
  2812 ;; This function calls:
  2813 ;;		Nothing
  2814 ;; This function is called by:
  2815 ;;		_Interrupt_Manager
  2816 ;; This function uses a non-reentrant model
  2817 ;;
  2818                           
  2819                           	psect	text19
  2820   001AF0                     __ptext19:
  2821                           	callstack 0
  2822   001AF0                     _INT2_ISR:
  2823                           	callstack 26
  2824   001AF0                     
  2825                           ;MCAL_Layer/interrupt/mcal_external_interrupt.c: 456:     (INTCON3bits.INT2IF = 0);
  2826   001AF0  92F0               	bcf	240,1,c	;volatile
  2827   001AF2  0012               	return		;funcret
  2828   001AF4                     __end_of_INT2_ISR:
  2829                           	callstack 0
  2830                           
  2831 ;; *************** function _INT1_ISR *****************
  2832 ;; Defined at:
  2833 ;;		line 446 in file "MCAL_Layer/interrupt/mcal_external_interrupt.c"
  2834 ;; Parameters:    Size  Location     Type
  2835 ;;		None
  2836 ;; Auto vars:     Size  Location     Type
  2837 ;;		None
  2838 ;; Return value:  Size  Location     Type
  2839 ;;                  1    wreg      void 
  2840 ;; Registers used:
  2841 ;;		None
  2842 ;; Tracked objects:
  2843 ;;		On entry : 0/0
  2844 ;;		On exit  : 0/0
  2845 ;;		Unchanged: 0/0
  2846 ;; Data sizes:     COMRAM   BANK0   BANK1   BANK2   BANK3   BANK4   BANK5   BANK6   BANK7   BANK8   BANK9  BANK10  BANK1
      +1  BANK12  BANK13  BANK14  BANK15
  2847 ;;      Params:         0       0       0       0       0       0       0       0       0       0       0       0       
      +0       0       0       0       0
  2848 ;;      Locals:         0       0       0       0       0       0       0       0       0       0       0       0       
      +0       0       0       0       0
  2849 ;;      Temps:          0       0       0       0       0       0       0       0       0       0       0       0       
      +0       0       0       0       0
  2850 ;;      Totals:         0       0       0       0       0       0       0       0       0       0       0       0       
      +0       0       0       0       0
  2851 ;;Total ram usage:        0 bytes
  2852 ;; Hardware stack levels used: 1
  2853 ;; This function calls:
  2854 ;;		Nothing
  2855 ;; This function is called by:
  2856 ;;		_Interrupt_Manager
  2857 ;; This function uses a non-reentrant model
  2858 ;;
  2859                           
  2860                           	psect	text20
  2861   001AF4                     __ptext20:
  2862                           	callstack 0
  2863   001AF4                     _INT1_ISR:
  2864                           	callstack 26
  2865   001AF4                     
  2866                           ;MCAL_Layer/interrupt/mcal_external_interrupt.c: 448:     (INTCON3bits.INT1IF = 0);
  2867   001AF4  90F0               	bcf	240,0,c	;volatile
  2868   001AF6  0012               	return		;funcret
  2869   001AF8                     __end_of_INT1_ISR:
  2870                           	callstack 0
  2871                           
  2872 ;; *************** function _INT0_ISR *****************
  2873 ;; Defined at:
  2874 ;;		line 438 in file "MCAL_Layer/interrupt/mcal_external_interrupt.c"
  2875 ;; Parameters:    Size  Location     Type
  2876 ;;		None
  2877 ;; Auto vars:     Size  Location     Type
  2878 ;;		None
  2879 ;; Return value:  Size  Location     Type
  2880 ;;                  1    wreg      void 
  2881 ;; Registers used:
  2882 ;;		None
  2883 ;; Tracked objects:
  2884 ;;		On entry : 0/0
  2885 ;;		On exit  : 0/0
  2886 ;;		Unchanged: 0/0
  2887 ;; Data sizes:     COMRAM   BANK0   BANK1   BANK2   BANK3   BANK4   BANK5   BANK6   BANK7   BANK8   BANK9  BANK10  BANK1
      +1  BANK12  BANK13  BANK14  BANK15
  2888 ;;      Params:         0       0       0       0       0       0       0       0       0       0       0       0       
      +0       0       0       0       0
  2889 ;;      Locals:         0       0       0       0       0       0       0       0       0       0       0       0       
      +0       0       0       0       0
  2890 ;;      Temps:          0       0       0       0       0       0       0       0       0       0       0       0       
      +0       0       0       0       0
  2891 ;;      Totals:         0       0       0       0       0       0       0       0       0       0       0       0       
      +0       0       0       0       0
  2892 ;;Total ram usage:        0 bytes
  2893 ;; Hardware stack levels used: 1
  2894 ;; This function calls:
  2895 ;;		Nothing
  2896 ;; This function is called by:
  2897 ;;		_Interrupt_Manager
  2898 ;; This function uses a non-reentrant model
  2899 ;;
  2900                           
  2901                           	psect	text21
  2902   001AF8                     __ptext21:
  2903                           	callstack 0
  2904   001AF8                     _INT0_ISR:
  2905                           	callstack 26
  2906   001AF8                     
  2907                           ;MCAL_Layer/interrupt/mcal_external_interrupt.c: 440:     (INTCONbits.INT0IF = 0);
  2908   001AF8  92F2               	bcf	242,1,c	;volatile
  2909   001AFA  0012               	return		;funcret
  2910   001AFC                     __end_of_INT0_ISR:
  2911                           	callstack 0
  2912                           
  2913 ;; *************** function _ADC_ISR *****************
  2914 ;; Defined at:
  2915 ;;		line 265 in file "MCAL_Layer/ADC/hal_adc.c"
  2916 ;; Parameters:    Size  Location     Type
  2917 ;;		None
  2918 ;; Auto vars:     Size  Location     Type
  2919 ;;		None
  2920 ;; Return value:  Size  Location     Type
  2921 ;;                  1    wreg      void 
  2922 ;; Registers used:
  2923 ;;		None
  2924 ;; Tracked objects:
  2925 ;;		On entry : 0/0
  2926 ;;		On exit  : 0/0
  2927 ;;		Unchanged: 0/0
  2928 ;; Data sizes:     COMRAM   BANK0   BANK1   BANK2   BANK3   BANK4   BANK5   BANK6   BANK7   BANK8   BANK9  BANK10  BANK1
      +1  BANK12  BANK13  BANK14  BANK15
  2929 ;;      Params:         0       0       0       0       0       0       0       0       0       0       0       0       
      +0       0       0       0       0
  2930 ;;      Locals:         0       0       0       0       0       0       0       0       0       0       0       0       
      +0       0       0       0       0
  2931 ;;      Temps:          0       0       0       0       0       0       0       0       0       0       0       0       
      +0       0       0       0       0
  2932 ;;      Totals:         0       0       0       0       0       0       0       0       0       0       0       0       
      +0       0       0       0       0
  2933 ;;Total ram usage:        0 bytes
  2934 ;; Hardware stack levels used: 1
  2935 ;; This function calls:
  2936 ;;		Nothing
  2937 ;; This function is called by:
  2938 ;;		_Interrupt_Manager
  2939 ;; This function uses a non-reentrant model
  2940 ;;
  2941                           
  2942                           	psect	text22
  2943   001AFC                     __ptext22:
  2944                           	callstack 0
  2945   001AFC                     _ADC_ISR:
  2946                           	callstack 26
  2947   001AFC                     
  2948                           ;MCAL_Layer/ADC/hal_adc.c: 266: (PIR1bits.ADIF = 0);
  2949   001AFC  9C9E               	bcf	158,6,c	;volatile
  2950   001AFE  0012               	return		;funcret
  2951   001B00                     __end_of_ADC_ISR:
  2952                           	callstack 0
  2953                           
  2954                           	psect	text23
  2955   000000                     __ptext23:
  2956                           	callstack 0
  2957   000000                     
  2958                           	psect	rparam
  2959   000000                     
  2960                           	psect	temp
  2961   00006E                     btemp:
  2962                           	callstack 0
  2963   00006E                     	ds	1
  2964   000000                     int$flags	set	btemp
  2965   000000                     wtemp8	set	btemp+1
  2966   000000                     ttemp5	set	btemp+1
  2967   000000                     ttemp6	set	btemp+4
  2968   000000                     ttemp7	set	btemp+8
  2969                           
  2970                           	psect	config
  2971                           
  2972                           ; Padding undefined space
  2973   300000                     	org	3145728
  2974   300000  FF                 	db	255
  2975                           
  2976                           ;Config register CONFIG1H @ 0x300001
  2977                           ;	Oscillator Selection bits
  2978                           ;	OSC = HS, HS oscillator
  2979                           ;	Fail-Safe Clock Monitor Enable bit
  2980                           ;	FCMEN = OFF, Fail-Safe Clock Monitor disabled
  2981                           ;	Internal/External Oscillator Switchover bit
  2982                           ;	IESO = OFF, Oscillator Switchover mode disabled
  2983   300001                     	org	3145729
  2984   300001  02                 	db	2
  2985                           
  2986                           ;Config register CONFIG2L @ 0x300002
  2987                           ;	Power-up Timer Enable bit
  2988                           ;	PWRT = OFF, PWRT disabled
  2989                           ;	Brown-out Reset Enable bits
  2990                           ;	BOREN = SBORDIS, Brown-out Reset enabled in hardware only (SBOREN is disabled)
  2991                           ;	Brown Out Reset Voltage bits
  2992                           ;	BORV = 3, Minimum setting
  2993   300002                     	org	3145730
  2994   300002  1F                 	db	31
  2995                           
  2996                           ;Config register CONFIG2H @ 0x300003
  2997                           ;	Watchdog Timer Enable bit
  2998                           ;	WDT = OFF, WDT disabled (control is placed on the SWDTEN bit)
  2999                           ;	Watchdog Timer Postscale Select bits
  3000                           ;	WDTPS = 32768, 1:32768
  3001   300003                     	org	3145731
  3002   300003  1E                 	db	30
  3003                           
  3004                           ; Padding undefined space
  3005   300004                     	org	3145732
  3006   300004  FF                 	db	255
  3007                           
  3008                           ;Config register CONFIG3H @ 0x300005
  3009                           ;	CCP2 MUX bit
  3010                           ;	CCP2MX = PORTC, CCP2 input/output is multiplexed with RC1
  3011                           ;	PORTB A/D Enable bit
  3012                           ;	PBADEN = OFF, PORTB<4:0> pins are configured as digital I/O on Reset
  3013                           ;	Low-Power Timer1 Oscillator Enable bit
  3014                           ;	LPT1OSC = OFF, Timer1 configured for higher power operation
  3015                           ;	MCLR Pin Enable bit
  3016                           ;	MCLRE = ON, MCLR pin enabled; RE3 input pin disabled
  3017   300005                     	org	3145733
  3018   300005  81                 	db	129
  3019                           
  3020                           ;Config register CONFIG4L @ 0x300006
  3021                           ;	Stack Full/Underflow Reset Enable bit
  3022                           ;	STVREN = ON, Stack full/underflow will cause Reset
  3023                           ;	Single-Supply ICSP Enable bit
  3024                           ;	LVP = OFF, Single-Supply ICSP disabled
  3025                           ;	Extended Instruction Set Enable bit
  3026                           ;	XINST = OFF, Instruction set extension and Indexed Addressing mode disabled (Legacy mo
      +                          de)
  3027                           ;	Background Debugger Enable bit
  3028                           ;	DEBUG = 0x1, unprogrammed default
  3029   300006                     	org	3145734
  3030   300006  81                 	db	129
  3031                           
  3032                           ; Padding undefined space
  3033   300007                     	org	3145735
  3034   300007  FF                 	db	255
  3035                           
  3036                           ;Config register CONFIG5L @ 0x300008
  3037                           ;	Code Protection bit
  3038                           ;	CP0 = OFF, Block 0 (000800-003FFFh) not code-protected
  3039                           ;	Code Protection bit
  3040                           ;	CP1 = OFF, Block 1 (004000-007FFFh) not code-protected
  3041                           ;	Code Protection bit
  3042                           ;	CP2 = OFF, Block 2 (008000-00BFFFh) not code-protected
  3043                           ;	Code Protection bit
  3044                           ;	CP3 = OFF, Block 3 (00C000-00FFFFh) not code-protected
  3045   300008                     	org	3145736
  3046   300008  0F                 	db	15
  3047                           
  3048                           ;Config register CONFIG5H @ 0x300009
  3049                           ;	Boot Block Code Protection bit
  3050                           ;	CPB = OFF, Boot block (000000-0007FFh) not code-protected
  3051                           ;	Data EEPROM Code Protection bit
  3052                           ;	CPD = OFF, Data EEPROM not code-protected
  3053   300009                     	org	3145737
  3054   300009  C0                 	db	192
  3055                           
  3056                           ;Config register CONFIG6L @ 0x30000A
  3057                           ;	Write Protection bit
  3058                           ;	WRT0 = OFF, Block 0 (000800-003FFFh) not write-protected
  3059                           ;	Write Protection bit
  3060                           ;	WRT1 = OFF, Block 1 (004000-007FFFh) not write-protected
  3061                           ;	Write Protection bit
  3062                           ;	WRT2 = OFF, Block 2 (008000-00BFFFh) not write-protected
  3063                           ;	Write Protection bit
  3064                           ;	WRT3 = OFF, Block 3 (00C000-00FFFFh) not write-protected
  3065   30000A                     	org	3145738
  3066   30000A  0F                 	db	15
  3067                           
  3068                           ;Config register CONFIG6H @ 0x30000B
  3069                           ;	Configuration Register Write Protection bit
  3070                           ;	WRTC = OFF, Configuration registers (300000-3000FFh) not write-protected
  3071                           ;	Boot Block Write Protection bit
  3072                           ;	WRTB = OFF, Boot Block (000000-0007FFh) not write-protected
  3073                           ;	Data EEPROM Write Protection bit
  3074                           ;	WRTD = OFF, Data EEPROM not write-protected
  3075   30000B                     	org	3145739
  3076   30000B  E0                 	db	224
  3077                           
  3078                           ;Config register CONFIG7L @ 0x30000C
  3079                           ;	Table Read Protection bit
  3080                           ;	EBTR0 = OFF, Block 0 (000800-003FFFh) not protected from table reads executed in other
      +                           blocks
  3081                           ;	Table Read Protection bit
  3082                           ;	EBTR1 = OFF, Block 1 (004000-007FFFh) not protected from table reads executed in other
      +                           blocks
  3083                           ;	Table Read Protection bit
  3084                           ;	EBTR2 = OFF, Block 2 (008000-00BFFFh) not protected from table reads executed in other
      +                           blocks
  3085                           ;	Table Read Protection bit
  3086                           ;	EBTR3 = OFF, Block 3 (00C000-00FFFFh) not protected from table reads executed in other
      +                           blocks
  3087   30000C                     	org	3145740
  3088   30000C  0F                 	db	15
  3089                           
  3090                           ;Config register CONFIG7H @ 0x30000D
  3091                           ;	Boot Block Table Read Protection bit
  3092                           ;	EBTRB = OFF, Boot Block (000000-0007FFh) not protected from table reads executed in ot
      +                          her blocks
  3093   30000D                     	org	3145741
  3094   30000D  40                 	db	64
  3095                           tosu	equ	0xFFF
  3096                           tosh	equ	0xFFE
  3097                           tosl	equ	0xFFD
  3098                           stkptr	equ	0xFFC
  3099                           pclatu	equ	0xFFB
  3100                           pclath	equ	0xFFA
  3101                           pcl	equ	0xFF9
  3102                           tblptru	equ	0xFF8
  3103                           tblptrh	equ	0xFF7
  3104                           tblptrl	equ	0xFF6
  3105                           tablat	equ	0xFF5
  3106                           prodh	equ	0xFF4
  3107                           prodl	equ	0xFF3
  3108                           indf0	equ	0xFEF
  3109                           postinc0	equ	0xFEE
  3110                           postdec0	equ	0xFED
  3111                           preinc0	equ	0xFEC
  3112                           plusw0	equ	0xFEB
  3113                           fsr0h	equ	0xFEA
  3114                           fsr0l	equ	0xFE9
  3115                           wreg	equ	0xFE8
  3116                           indf1	equ	0xFE7
  3117                           postinc1	equ	0xFE6
  3118                           postdec1	equ	0xFE5
  3119                           preinc1	equ	0xFE4
  3120                           plusw1	equ	0xFE3
  3121                           fsr1h	equ	0xFE2
  3122                           fsr1l	equ	0xFE1
  3123                           bsr	equ	0xFE0
  3124                           indf2	equ	0xFDF
  3125                           postinc2	equ	0xFDE
  3126                           postdec2	equ	0xFDD
  3127                           preinc2	equ	0xFDC
  3128                           plusw2	equ	0xFDB
  3129                           fsr2h	equ	0xFDA
  3130                           fsr2l	equ	0xFD9
  3131                           status	equ	0xFD8

Data Sizes:
    Strings     6
    Constant    0
    Data        108
    BSS         42
    Persistent  0
    Stack       0

Auto Spaces:
    Space          Size  Autos    Used
    COMRAM          126     27     109
    BANK0           128      9      77
    BANK1           256      0       0
    BANK2           256      0       0
    BANK3           256      0       0
    BANK4           256      0       0
    BANK5           256      0       0
    BANK6           256      0       0
    BANK7           256      0       0
    BANK8           256      0       0
    BANK9           256      0       0
    BANK10          256      0       0
    BANK11          256      0       0
    BANK12          256      0       0
    BANK13          256      0       0
    BANK14          256      0       0
    BANK15          128      0       0

Pointer List with Targets:

    vfprintf$2	PTR PTR void  size(2) Largest target is 2
		 -> sprintf@ap(COMRAM[2]), 

    vfprintf$1	PTR const unsigned char  size(2) Largest target is 3
		 -> STR_6(CODE[3]), STR_4(CODE[3]), STR_2(CODE[3]), 

    vfprintf$0	PTR struct _IO_FILE size(2) Largest target is 12
		 -> sprintf@f(COMRAM[12]), 

    S2577$source	PTR const unsigned char  size(2) Largest target is 0

    f...source	PTR const unsigned char  size(2) Largest target is 0

    S2577$buffer	PTR unsigned char  size(2) Largest target is 0

    f...buffer	PTR unsigned char  size(2) Largest target is 0

    Timer0_Register_Size@timer1.TMR0_Interrupt_Hundeler	PTR FTN()void  size(2) Largest target is 1
		 -> Timer0_Defualt_Hundeler(), 

    Timer0_Register_Size@timer1	PTR const struct . size(2) Largest target is 8
		 -> Timer1_obj(COMRAM[8]), 

    Timer0_Mode_Select@timer1.TMR0_Interrupt_Hundeler	PTR FTN()void  size(2) Largest target is 1
		 -> Timer0_Defualt_Hundeler(), 

    Timer0_Mode_Select@timer1	PTR const struct . size(2) Largest target is 8
		 -> Timer1_obj(COMRAM[8]), 

    Timer0_Prescaler_Config@timer1.TMR0_Interrupt_Hundeler	PTR FTN()void  size(2) Largest target is 1
		 -> Timer0_Defualt_Hundeler(), 

    Timer0_Prescaler_Config@timer1	PTR const struct . size(2) Largest target is 8
		 -> Timer1_obj(COMRAM[8]), 

    TMR0_Interrupt_Hundeler	PTR FTN()void  size(2) Largest target is 1
		 -> Timer0_Defualt_Hundeler(), NULL(), 

    Timer0_Init@timer1.TMR0_Interrupt_Hundeler	PTR FTN()void  size(2) Largest target is 1
		 -> Timer0_Defualt_Hundeler(), 

    Timer0_Init@timer1	PTR const struct . size(2) Largest target is 8
		 -> Timer1_obj(COMRAM[8]), 

    S1883$TMR0_Interrupt_Hundeler	PTR FTN()void  size(2) Largest target is 1
		 -> Timer0_Defualt_Hundeler(), 

    Timer1_obj.TMR0_Interrupt_Hundeler	PTR FTN()void  size(2) Largest target is 1
		 -> Timer0_Defualt_Hundeler(), 

    Interrupt_INTx_SetHandular@int_obj.Ext_Intterrupt	PTR FTN()void  size(2) Largest target is 0

    INT2_Interrupt_Handular	PTR FTN()void  size(2) Largest target is 1
		 -> NULL(), 

    INT1_Interrupt_Handular	PTR FTN()void  size(2) Largest target is 1
		 -> NULL(), 

    INT0_Interrupt_Handular	PTR FTN()void  size(2) Largest target is 1
		 -> NULL(), 

    Interrupt_INTx_Clear_Flag@int_obj.Ext_Intterrupt	PTR FTN()void  size(2) Largest target is 0

    Interrupt_INTx_Pin_Init@int_obj.Ext_Intterrupt	PTR FTN()void  size(2) Largest target is 0

    Interrupt_INTx_Edge_Init@int_obj.Ext_Intterrupt	PTR FTN()void  size(2) Largest target is 0

    Interrupt_INTx_Disable@int_obj.Ext_Intterrupt	PTR FTN()void  size(2) Largest target is 0

    S1337$Ext_Intterrupt	PTR FTN()void  size(2) Largest target is 0

    Interrupt_INTx_Enable@int_obj.Ext_Intterrupt	PTR FTN()void  size(2) Largest target is 0

    RB7_Interrupt_Handular_LOW	PTR FTN()void  size(2) Largest target is 1
		 -> NULL(), 

    RB7_Interrupt_Handular_HIGH	PTR FTN()void  size(2) Largest target is 1
		 -> NULL(), 

    RB6_Interrupt_Handular_LOW	PTR FTN()void  size(2) Largest target is 1
		 -> NULL(), 

    RB6_Interrupt_Handular_HIGH	PTR FTN()void  size(2) Largest target is 1
		 -> NULL(), 

    RB5_Interrupt_Handular_LOW	PTR FTN()void  size(2) Largest target is 1
		 -> NULL(), 

    RB5_Interrupt_Handular_HIGH	PTR FTN()void  size(2) Largest target is 1
		 -> NULL(), 

    RB4_Interrupt_Handular_LOW	PTR FTN()void  size(2) Largest target is 1
		 -> NULL(), 

    RB4_Interrupt_Handular_HIGH	PTR FTN()void  size(2) Largest target is 1
		 -> NULL(), 

    S1375$Ext_Intterrupt_LOW	PTR FTN()void  size(2) Largest target is 0

    Interrupt_RBx_Initialization@int_obj.Ext_Intterrupt_LOW	PTR FTN()void  size(2) Largest target is 0

    S1375$Ext_Intterrupt_HIGH	PTR FTN()void  size(2) Largest target is 0

    Interrupt_RBx_Initialization@int_obj.Ext_Intterrupt_HIGH	PTR FTN()void  size(2) Largest target is 0

    gpio_pin_intialize@pin_config	PTR const struct . size(2) Largest target is 6
		 -> lcd_1.lcd_data(COMRAM[4]), lcd_1(COMRAM[6]), Relay_Initialize@pin_obj(COMRAM[1]), led_initialize@pin_obj(BANK0[1]), 

    gpio_pin_toggle_logic@pin_config	PTR const struct . size(2) Largest target is 1
		 -> led_toggle@pin_obj(COMRAM[1]), 

    gpio_pin_write_logic@pin_config	PTR const struct . size(2) Largest target is 6
		 -> lcd_4_bit_send_command@lcd.lcd_data(COMRAM[8]), lcd_4_bit_send_char_data@lcd.lcd_data(COMRAM[8]), lcd_4_bit_send_data_position@lcd.lcd_data(COMRAM[8]), lcd_4_bit_send_string@lcd.lcd_data(COMRAM[8]), 
		 -> lcd_4_bit_send_string_position@lcd.lcd_data(COMRAM[8]), lcd_1.lcd_data(COMRAM[8]), lcd_1.lcd_data(COMRAM[4]), lcd_1(COMRAM[6]), 
		 -> Relay_Turn_OFF@pin_obj(COMRAM[1]), Relay_Turn_ON@pin_obj(COMRAM[1]), Relay_Initialize@pin_obj(COMRAM[1]), led_turn_off@pin_obj(COMRAM[1]), 
		 -> led_turn_on@pin_obj(COMRAM[1]), led_initialize@pin_obj(BANK0[1]), lcd_8_bit_send_command@lcd(COMRAM[2]), lcd_4_bit_send_string_position@lcd(COMRAM[2]), 
		 -> lcd_4_bit_send_string@lcd(COMRAM[2]), lcd_4_bit_send_data_position@lcd(COMRAM[2]), lcd_4_bit_send_char_data@lcd(COMRAM[2]), lcd_4_bit_send_command@lcd(COMRAM[2]), 

    gpio_pin_direction_intialize@pin_config	PTR const struct . size(2) Largest target is 6
		 -> lcd_1.lcd_data(COMRAM[4]), lcd_1(COMRAM[6]), Relay_Initialize@pin_obj(COMRAM[1]), led_initialize@pin_obj(BANK0[1]), 

    port_registers	PTR volatile unsigned char [5] size(2) Largest target is 1
		 -> PORTE(BITBIGSFRlllll[1]), PORTD(BITBIGSFRlllll[1]), PORTC(BITBIGSFRlllll[1]), PORTB(BITBIGSFRlllll[1]), 
		 -> PORTA(BITBIGSFRlllll[1]), 

    lat_registers	PTR volatile unsigned char [5] size(2) Largest target is 1
		 -> LATE(BITBIGSFRllllh[1]), LATD(BITBIGSFRllllh[1]), LATC(BITBIGSFRllllh[1]), LATB(BITBIGSFRllllh[1]), 
		 -> LATA(BITBIGSFRlllll[1]), 

    tris_registers	PTR volatile unsigned char [5] size(2) Largest target is 1
		 -> TRISD(ABS[1]), TRISC(ABS[1]), TRISB(ABS[1]), TRISE(ABS[1]), 
		 -> TRISA(BITBIGSFRlllll[1]), 

    select_voltage_reference@_adc_obj.ADC_INTERRUPTHUNDLER	PTR FTN()void  size(2) Largest target is 0

    select_result_format@_adc_obj.ADC_INTERRUPTHUNDLER	PTR FTN()void  size(2) Largest target is 0

    ADC_GetConversion_Result@_adc_obj.ADC_INTERRUPTHUNDLER	PTR FTN()void  size(2) Largest target is 0

    ADC_Interrupt_Handular	PTR FTN()void  size(2) Largest target is 1
		 -> NULL(), 

    S725$ADC_INTERRUPTHUNDLER	PTR FTN()void  size(2) Largest target is 0

    ADC_Init@_adc_obj.ADC_INTERRUPTHUNDLER	PTR FTN()void  size(2) Largest target is 0

    led_toggle@led	PTR const struct . size(2) Largest target is 1
		 -> led2(COMRAM[1]), led1(COMRAM[1]), 

    led_initialize@led	PTR const struct . size(2) Largest target is 1
		 -> led2(COMRAM[1]), led1(COMRAM[1]), 

    sp__memset	PTR void  size(2) Largest target is 0

    keypad_btn_values	PTR const unsigned char [4][4] size(3) Largest target is 65535
		 -> ROM(CODE[65535]), 


Critical Paths under _main in COMRAM

    _gpio_pin_intialize->_gpio_pin_write_logic
    _Timer0_Init->_Timer0_Prescaler_Config

Critical Paths under _Interrupt_Manager in COMRAM

    _Timer0_Defualt_Hundeler->_led_toggle
    _led_toggle->_gpio_pin_toggle_logic

Critical Paths under _main in BANK0

    _main->_led_initialize
    _led_initialize->_gpio_pin_intialize

Critical Paths under _Interrupt_Manager in BANK0

    None.

Critical Paths under _main in BANK1

    None.

Critical Paths under _Interrupt_Manager in BANK1

    None.

Critical Paths under _main in BANK2

    None.

Critical Paths under _Interrupt_Manager in BANK2

    None.

Critical Paths under _main in BANK3

    None.

Critical Paths under _Interrupt_Manager in BANK3

    None.

Critical Paths under _main in BANK4

    None.

Critical Paths under _Interrupt_Manager in BANK4

    None.

Critical Paths under _main in BANK5

    None.

Critical Paths under _Interrupt_Manager in BANK5

    None.

Critical Paths under _main in BANK6

    None.

Critical Paths under _Interrupt_Manager in BANK6

    None.

Critical Paths under _main in BANK7

    None.

Critical Paths under _Interrupt_Manager in BANK7

    None.

Critical Paths under _main in BANK8

    None.

Critical Paths under _Interrupt_Manager in BANK8

    None.

Critical Paths under _main in BANK9

    None.

Critical Paths under _Interrupt_Manager in BANK9

    None.

Critical Paths under _main in BANK10

    None.

Critical Paths under _Interrupt_Manager in BANK10

    None.

Critical Paths under _main in BANK11

    None.

Critical Paths under _Interrupt_Manager in BANK11

    None.

Critical Paths under _main in BANK12

    None.

Critical Paths under _Interrupt_Manager in BANK12

    None.

Critical Paths under _main in BANK13

    None.

Critical Paths under _Interrupt_Manager in BANK13

    None.

Critical Paths under _main in BANK14

    None.

Critical Paths under _Interrupt_Manager in BANK14

    None.

Critical Paths under _main in BANK15

    None.

Critical Paths under _Interrupt_Manager in BANK15

    None.

Call Graph Tables:

 ---------------------------------------------------------------------------------
 (Depth) Function   	        Calls       Base Space   Used Autos Params    Refs
 ---------------------------------------------------------------------------------
 (0) _main                                                 1     1      0    9263
                        _Timer0_Init
             _application_initialize
                     _led_initialize
 ---------------------------------------------------------------------------------
 (1) _led_initialize                                       5     3      2    8549
                                              4 BANK0      5     3      2
                 _gpio_pin_intialize
 ---------------------------------------------------------------------------------
 (2) _gpio_pin_intialize                                   4     2      2    8123
                                              0 BANK0      4     2      2
       _gpio_pin_direction_intialize
               _gpio_pin_write_logic
 ---------------------------------------------------------------------------------
 (3) _gpio_pin_write_logic                                10     7      3    5868
                                             17 COMRAM    10     7      3
 ---------------------------------------------------------------------------------
 (3) _gpio_pin_direction_intialize                         9     7      2     707
                                             17 COMRAM     9     7      2
 ---------------------------------------------------------------------------------
 (1) _application_initialize                               1     1      0       0
 ---------------------------------------------------------------------------------
 (1) _Timer0_Init                                          5     3      2     702
                                             20 COMRAM     5     3      2
                 _Timer0_Mode_Select
            _Timer0_Prescaler_Config
               _Timer0_Register_Size
 ---------------------------------------------------------------------------------
 (2) _Timer0_Register_Size                                 2     0      2     120
                                             17 COMRAM     2     0      2
 ---------------------------------------------------------------------------------
 (2) _Timer0_Prescaler_Config                              3     1      2     142
                                             17 COMRAM     3     1      2
 ---------------------------------------------------------------------------------
 (2) _Timer0_Mode_Select                                   2     0      2     164
                                             17 COMRAM     2     0      2
 ---------------------------------------------------------------------------------
 Estimated maximum stack depth 3
 ---------------------------------------------------------------------------------
 (Depth) Function   	        Calls       Base Space   Used Autos Params    Refs
 ---------------------------------------------------------------------------------
 (4) _Interrupt_Manager                                    6     6      0     570
                                             11 COMRAM     6     6      0
                            _ADC_ISR
                           _INT0_ISR
                           _INT1_ISR
                           _INT2_ISR
                            _RB4_ISR
                            _RB5_ISR
                            _RB6_ISR
                            _RB7_ISR
                         _TIMER0_ISR
 ---------------------------------------------------------------------------------
 (5) _TIMER0_ISR                                           0     0      0     450
                                NULL *
            _Timer0_Defualt_Hundeler *
 ---------------------------------------------------------------------------------
 (6) _Timer0_Defualt_Hundeler                              0     0      0     450
                         _led_toggle
 ---------------------------------------------------------------------------------
 (7) _led_toggle                                           5     3      2     450
                                              7 COMRAM     4     2      2
              _gpio_pin_toggle_logic
 ---------------------------------------------------------------------------------
 (8) _gpio_pin_toggle_logic                                8     6      2     172
                                              0 COMRAM     7     5      2
 ---------------------------------------------------------------------------------
 (6) NULL(Fake)                                            0     0      0       0
 ---------------------------------------------------------------------------------
 (5) _RB7_ISR                                              1     1      0      30
                                              0 COMRAM     1     1      0
 ---------------------------------------------------------------------------------
 (5) _RB6_ISR                                              1     1      0      30
                                              0 COMRAM     1     1      0
 ---------------------------------------------------------------------------------
 (5) _RB5_ISR                                              1     1      0      30
                                              0 COMRAM     1     1      0
 ---------------------------------------------------------------------------------
 (5) _RB4_ISR                                              1     1      0      30
                                              0 COMRAM     1     1      0
 ---------------------------------------------------------------------------------
 (5) _INT2_ISR                                             0     0      0       0
 ---------------------------------------------------------------------------------
 (5) _INT1_ISR                                             0     0      0       0
 ---------------------------------------------------------------------------------
 (5) _INT0_ISR                                             0     0      0       0
 ---------------------------------------------------------------------------------
 (5) _ADC_ISR                                              0     0      0       0
 ---------------------------------------------------------------------------------
 Estimated maximum stack depth 8
 ---------------------------------------------------------------------------------

 Call Graph Graphs:

 _main (ROOT)
   _Timer0_Init
     _Timer0_Mode_Select
     _Timer0_Prescaler_Config
     _Timer0_Register_Size
   _application_initialize
   _led_initialize
     _gpio_pin_intialize
       _gpio_pin_direction_intialize
       _gpio_pin_write_logic

 _Interrupt_Manager (ROOT)
   _ADC_ISR
   _INT0_ISR
   _INT1_ISR
   _INT2_ISR
   _RB4_ISR
   _RB5_ISR
   _RB6_ISR
   _RB7_ISR
   _TIMER0_ISR
     NULL(Fake) *
     _Timer0_Defualt_Hundeler *
       _led_toggle
         _gpio_pin_toggle_logic

 Address spaces:
Name               Size   Autos  Total    Cost      Usage
BIGRAM             F7F      0       0      45        0.0%
EEDATA             400      0       0       0        0.0%
BITBANK14          100      0       0      32        0.0%
BANK14             100      0       0      33        0.0%
BITBANK13          100      0       0      30        0.0%
BANK13             100      0       0      31        0.0%
BITBANK12          100      0       0      28        0.0%
BANK12             100      0       0      29        0.0%
BITBANK11          100      0       0      26        0.0%
BANK11             100      0       0      27        0.0%
BITBANK10          100      0       0      24        0.0%
BANK10             100      0       0      25        0.0%
BITBANK9           100      0       0      22        0.0%
BANK9              100      0       0      23        0.0%
BITBANK8           100      0       0      20        0.0%
BANK8              100      0       0      21        0.0%
BITBANK7           100      0       0      18        0.0%
BANK7              100      0       0      19        0.0%
BITBANK6           100      0       0      16        0.0%
BANK6              100      0       0      17        0.0%
BITBANK5           100      0       0      14        0.0%
BANK5              100      0       0      15        0.0%
BITBANK4           100      0       0      12        0.0%
BANK4              100      0       0      13        0.0%
BITBANK3           100      0       0      10        0.0%
BANK3              100      0       0      11        0.0%
BITBANK2           100      0       0       8        0.0%
BANK2              100      0       0       9        0.0%
BITBANK1           100      0       0       6        0.0%
BANK1              100      0       0       7        0.0%
BITBANK15           80      0       0      34        0.0%
BANK15              80      0       0      35        0.0%
BITBANK0            80      0       0       4        0.0%
BANK0               80      9      4D       5       60.2%
BITCOMRAM           7E      0       0       0        0.0%
COMRAM              7E     1B      6D       1       86.5%
BITBIGSFRhlhlhh     18      0       0      37        0.0%
BITBIGSFRllhh       15      0       0      39        0.0%
BITBIGSFRhlhll      10      0       0      38        0.0%
BITBIGSFRhh          D      0       0      36        0.0%
BITBIGSFRllhll       7      0       0      40        0.0%
BITBIGSFRlllhh       6      0       0      41        0.0%
BITBIGSFRllllh       4      0       0      42        0.0%
BITBIGSFRlllll       4      0       0      43        0.0%
BIGSFR               0      0       0     200        0.0%
BITSFR               0      0       0     200        0.0%
SFR                  0      0       0     200        0.0%
STACK                0      0       0       2        0.0%
NULL                 0      0       0       0        0.0%
ABS                  0      0      BA      44        0.0%
DATA                 0      0      BA       3        0.0%
CODE                 0      0       0       0        0.0%


Microchip Technology PIC18 Macro Assembler V2.41 build 20230208172133 
Symbol Table                                                                                   Thu Nov 30 19:39:24 2023

                   ??_Interrupt_Manager 005E                                     l253 1734  
                                   l249 16D4                                     l531 1440  
                                   l550 157C                                     l571 1820  
                                   l901 1A26                                     l902 1A26  
                                   l907 1B00                                     l933 159C  
                                   l935 1620                                     l961 18EA  
                                   l971 17AE                                     l978 19C2  
                       __end_of_ADC_ISR 1B00                     led_initialize@F3048 002A  
                                   prod 0FF3                                     tosl 0FFD  
                                   wreg 0FE8                         __end_of_RB4_ISR 1AF0  
                       __end_of_RB5_ISR 1AD6                         __end_of_RB6_ISR 1ABC  
                       __end_of_RB7_ISR 1AA2                                    l2205 1B00  
                                  l5111 1428                                    l4321 1458  
                                  l4401 17EE                                    l3451 18AE  
                                  l4323 1468                                    l4403 181E  
                                  l3461 1750                                    l3453 18B0  
                                  l5109 1564                                    l4325 148A  
                                  l4317 1442                                    l5061 19FA  
                                  l3463 1752                                    l3471 1792  
                                  l3455 18CE                                    l4351 1336  
                                  l4327 1492                                    l4335 1550  
                                  l4319 1446                                    l5063 19FE  
                                  l3473 17AC                                    l3465 176C  
                                  l3457 18E8                                    l3449 1894  
                                  l3481 19C0                                    l4353 133E  
                                  l4361 143E                                    l4345 12FE  
                                  l4329 14F4                                    l4337 157A  
                                  l5065 1A0A                                    l3467 1772  
                                  l3459 1736                                    l3475 1986  
                                  l4355 13A0                                    l4347 1302  
                                  l5067 1A18                                    l5059 19FA  
                                  l3469 178C                                    l3477 19A0  
                                  l3661 1594                                    l4349 1314  
                                  l3479 19A6                                    l3671 1604  
                                  l3663 159E                                    l4359 13FC  
                                  l3681 161C                                    l3673 1606  
                                  l3665 15C2                                    l3657 157E  
                                  l4393 17B0                                    l3675 1608  
                                  l3667 15E0                                    l3683 161E  
                                  l3659 1582                                    l4395 17B0  
                                  l3677 1618                                    l3669 15F0  
                                  l4397 17C4                                    l4581 16CC  
                                  l3679 161A                                    l4399 17E6  
                                  l4583 16D8                                    l4591 1730  
                                  l4585 170E                                    l4577 16B4  
                                  l4587 1710                                    l4579 16BA  
                                  l4589 1724                                    STR_1 1001  
                                  STR_2 1004                                    u2300 176C  
                                  u2301 1768                                    _LATA 0F89  
                                  u2310 178C                                    _LATB 0F8A  
                                  u2311 1788                                    _LATC 0F8B  
                                  u2320 17AC                                    _LATD 0F8C  
                                  u2321 17A8                                    _LATE 0F8D  
                                  u2330 19A0                                    u2331 199C  
                                  u2340 19C0                                    u2341 19BC  
                                  u2270 18AE                                    u2271 18AA  
                                  u2280 18E8                                    u2520 1594  
                                  u2281 18E4                                    u2521 1590  
                                  u2290 1750                                    u2291 174C  
                                  u3520 1314                                    u3504 14B2  
                                  u3521 1310                                    u3505 14AE  
                                  u3530 1336                                    u3514 1514  
                                  u3531 1332                                    u3515 1510  
                                  u3470 1458                                    u3471 1454  
                                  u3560 1414                                    u3544 135E  
                                  u3480 1468                                    u3561 140E  
                                  u3545 135A                                    u3481 1464  
                                  u3570 1416                                    u3554 13C0  
                                  u3490 148A                                    u3555 13BC  
                                  u3491 1486                                    u3580 17C4  
                                  u3740 16CC                                    u3581 17C0  
                                  u3741 16C8                                    u3590 17E6  
                                  u3591 17E2                                    u3755 1720  
                                  u3757 1724               __end_of_Interrupt_Manager 12FE  
                                  _led1 0052                                    _led2 0051  
                                  _main 19FA                                    fsr2h 0FDA  
                                  indf2 0FDF                                    fsr1l 0FE1  
                                  fsr2l 0FD9                                    btemp 006E  
                __end_of_led_initialize 1736                                    prodh 0FF4  
                                  prodl 0FF3                                    start 000E  
                          ___param_bank 0000                  ?_gpio_pin_toggle_logic 0053  
                  _gpio_pin_write_logic 1442                             ?_TIMER0_ISR 0053  
                      __end_of_INT0_ISR 1AFC                        __end_of_INT1_ISR 1AF8  
                      __end_of_INT2_ISR 1AF4                                   ?_main 0053  
              ??_application_initialize 0064                                   _EEADR 0FA9  
                                 i2l270 1838                                   i2l274 1892  
                                 i2l800 1ABA                                   i2l458 1AFE  
                                 i2l811 1AA0                                   i2l564 16B2  
                                 i2l912 1A5E                                   i2l762 1AF6  
                                 i2l757 1AFA                                   i2l861 110A  
                                 i2l853 1042                                   i2l767 1AF2  
                                 i2l871 125E                                   i2l863 114E  
                                 i2l855 1062                                   i2l873 12A2  
                                 i2l865 1192                                   i2l857 1082  
                                 i2l778 1AEE                                   i2l954 19F8  
                                 i2l875 12C2                                   i2l867 11D6  
                                 i2l859 10C6                                   i2l789 1AD4  
                                 i2l869 121A                                   i2l878 12E2  
                                 _TMR0H 0FD7                                   _TMR0L 0FD6  
                                 _PORTA 0F80                                   _PORTB 0F81  
                                 _PORTC 0F82                                   _PORTD 0F83  
                                 _PORTE 0F84                                   _TRISA 0F92  
                                 _TRISB 0F93                                   _TRISC 0F94  
                                 _TRISD 0F95                                   _TRISE 0F96  
                     Timer0_Init@timer1 0067                                   _lcd_1 004B  
                                 _lcd_2 00BA                                   pclath 0FFA  
                                 pclatu 0FFB                                   tablat 0FF5  
                                 ttemp5 006F                                   ttemp6 0072  
                                 ttemp7 0076                                   status 0FD8  
       __end_of_Timer0_Defualt_Hundeler 1A60                                   wtemp8 006F  
                       ?_led_initialize 00C8                 _Timer0_Prescaler_Config 1894  
                       __initialization 18EC                            __end_of_main 1A2E  
                 ?_gpio_pin_write_logic 0064                               ??_ADC_ISR 0053  
                         _lat_registers 002B                                  ??_main 006E  
                         __activetblptr 0003                        led_turn_on@F3053 0029  
                             ??_RB4_ISR 0053                               ??_RB5_ISR 0053  
                             ??_RB6_ISR 0053                               ??_RB7_ISR 0053  
                                _ADRESH 0FC4                                  _EEADRH 0FAA  
                                _ADRESL 0FC3                                  _EEDATA 0FA8  
                                _EECON2 0FA7                     Relay_Turn_OFF@F3052 0024  
                                i2l2121 1AF8                                  i2l2133 1AF0  
                                i2l2141 1ADA                                  i2l2127 1AF4  
                                i2l2081 1AFC                                  i2l2161 1AD4  
                                i2l2153 1ABE                                  i2l2147 1AEE  
                                i2l2139 1AD8                                  i2l2155 1AC0  
                                i2l2181 1A8A                                  i2l3301 1634  
                                i2l2175 1ABA                                  i2l2167 1AA4  
                                i2l2183 1A8C                                  i2l3303 1656  
                                i2l2169 1AA6                                  i2l3305 165A  
                                i2l4201 103E                                  i2l4211 1090  
                                i2l4203 1050                                  i2l2189 1AA0  
                                i2l4221 10D4                                  i2l4213 109E  
                                i2l4205 105E                                  i2l4231 1118  
                                i2l4223 10E2                                  i2l4215 10AC  
                                i2l4207 1070                                  i2l3441 1A30  
                                i2l4241 115C                                  i2l4233 1126  
                                i2l4225 10F0                                  i2l4217 10BC  
                                i2l4209 107E                                  i2l3443 1A3C  
                                i2l4251 11A0                                  i2l4243 116A  
                                i2l4235 1134                                  i2l4227 1100  
                                i2l4219 10C0                                  i2l3445 1A4E  
                                i2l4261 11E4                                  i2l4253 11AE  
                                i2l4245 1178                                  i2l4237 1144  
                                i2l4229 1104                                  i2l3391 183C  
                                i2l3447 1A52                                  i2l3439 1A2E  
                                i2l4271 1228                                  i2l4263 11F2  
                                i2l4255 11BC                                  i2l4247 1188  
                                i2l4239 1148                                  i2l3297 1622  
                                i2l3393 1872                                  i2l3385 1822  
                                i2l4281 126C                                  i2l4273 1236  
                                i2l4265 1200                                  i2l4257 11CC  
                                i2l4249 118C                                  i2l3299 1622  
                                i2l3395 1874                                  i2l3387 1822  
                                i2l3651 19CA                                  i2l4291 12B0  
                                i2l4283 127A                                  i2l4275 1244  
                                i2l4267 1210                                  i2l4259 11D0  
                                i2l3397 1886                                  i2l3389 1834  
                                i2l3653 19CE                                  i2l4293 12BE  
                                i2l4285 1288                                  i2l4277 1254  
                                i2l4269 1214                                  i2l4197 1022  
                                i2l3655 19E0                                  i2l3647 19C4  
                                i2l4295 12D0                                  i2l4287 1298  
                                i2l4279 1258                                  i2l4199 1030  
                                i2l3649 19C6                                  i2l4297 12DE  
                                i2l4289 129C                           ??_Timer0_Init 0069  
                            _Timer1_obj 0043             _RB6_Interrupt_Handular_HIGH 0011  
                                clear_0 1932                   led_initialize@pin_obj 00CC  
                                isa$std 0001                            __pdataCOMRAM 002B  
                          __mediumconst 0000                                  tblptrh 0FF7  
                                tblptrl 0FF6                                  tblptru 0FF8  
             ??_Timer0_Prescaler_Config 0066                              __accesstop 0080  
               __end_of__initialization 1938                               ?_INT0_ISR 0053  
                             ?_INT1_ISR 0053                               ?_INT2_ISR 0053  
                         ___rparam_used 0001                       led_initialize@led 00C8  
                     led_initialize@ret 00CB                  ??_gpio_pin_write_logic 0067  
                        __pcstackCOMRAM 0053                            __pidataBANK0 1942  
                         RB4_ISR@source 0053                     __end_of_Timer0_Init 1622  
                         RB5_ISR@source 0053              _RB6_Interrupt_Handular_LOW 000F  
               _INT0_Interrupt_Handular 001F                              ??_INT0_ISR 0053  
                            ??_INT1_ISR 0053             convert_uint_16_string@F3199 0001  
                            ??_INT2_ISR 0053                  _application_initialize 1B00  
               ??_gpio_pin_toggle_logic 0055                   Relay_Initialize@F3042 0026  
                         RB6_ISR@source 0053                       led_turn_off@F3058 0028  
                          ??_TIMER0_ISR 005E                           led_toggle@led 005A  
          __end_of_Timer0_Register_Size 19C4                                 _ADC_ISR 1AFC  
                       led_toggle@F3063 0027                                 _RB4_ISR 1AD6  
                               _RB5_ISR 1ABC                                 _RB6_ISR 1AA2  
                               _RB7_ISR 1A88                                 i2u60_40 1AB6  
                               i2u60_41 1AB2                                 i2u61_40 1A9C  
                               i2u61_41 1A98                                 i2u58_40 1AEA  
                               i2u58_41 1AE6                                 i2u59_40 1AD0  
                               i2u59_41 1ACC                           RB7_ISR@source 0053  
                      ??_led_initialize 00CA                              _led_toggle 1822  
                        _tris_registers 0035                      __end_of_TIMER0_ISR 19FA  
            Timer0_Register_Size@timer1 0064                                 __Hparam 0000  
                           _Timer0_Init 157E                                 __Lparam 0000  
                          __psmallconst 1000              __end_of_gpio_pin_intialize 1822  
                               __pcinit 18EC                                 __ramtop 1000  
                               __ptext0 19FA                                 __ptext1 16B4  
                               __ptext2 17B0                                 __ptext3 1442  
                               __ptext4 12FE                                 __ptext5 1B00  
                               __ptext6 157E                                 __ptext7 1986  
                               __ptext8 1894                                 __ptext9 1736  
                             _T0CONbits 0FD5                          __pintcode_body 1008  
                  end_of_initialization 1938                                 int_func 1008  
                 gpio_pin_intialize@ret 00C7                                 postdec1 0FE5  
                               postdec2 0FDD                                 postinc0 0FEE  
                               postinc2 0FDE                               _PORTBbits 0F81  
                     led_toggle@pin_obj 005D                 _Timer0_Defualt_Hundeler 1A2E  
            fp__Timer0_Defualt_Hundeler 0000    __end_of_gpio_pin_direction_intialize 1442  
          _gpio_pin_direction_intialize 12FE                    _square_25hz_waveform 0023  
         Timer0_Prescaler_Config@timer1 0064                             ?_led_toggle 005A  
                  _Timer0_Register_Size 1986             _RB4_Interrupt_Handular_HIGH 0019  
            __end_of_Timer0_Mode_Select 17B0             _RB7_Interrupt_Handular_HIGH 000D  
                         __pidataCOMRAM 1A60                          _timer0_preload 0007  
                   start_initialization 18EC           ?_gpio_pin_direction_intialize 0064  
               ?_application_initialize 0053                   ?_Timer0_Register_Size 0064  
                    Relay_Turn_ON@F3047 0025           __end_of_gpio_pin_toggle_logic 16B4  
                           __pdataBANK0 0080               ??_Timer0_Defualt_Hundeler 005E  
                              ?_ADC_ISR 0053                  _ADC_Interrupt_Handular 0021  
                              ?_RB4_ISR 0053                                ?_RB5_ISR 0053  
                              ?_RB6_ISR 0053                                ?_RB7_ISR 0053  
                           __pbssCOMRAM 0001                           __pcstackBANK0 00C4  
        __end_of_application_initialize 1B02                ?_Timer0_Prescaler_Config 0064  
            _RB5_Interrupt_Handular_LOW 0013                 _INT2_Interrupt_Handular 001B  
        gpio_pin_write_logic@pin_config 0064         gpio_pin_direction_intialize@ret 006C  
                          ?_Timer0_Init 0067                               __pintcode 0008  
             gpio_pin_write_logic@logic 0066                 _TMR0_Interrupt_Hundeler 0009  
                           __smallconst 1000                  ??_Timer0_Register_Size 0066  
                    _gpio_pin_intialize 17B0          ??_gpio_pin_direction_intialize 0066  
                              _INT0_ISR 1AF8                                _INT1_ISR 1AF4  
                              _INT2_ISR 1AF0                                _RB4_Flag 0042  
                              _RB5_Flag 0041                                _RB6_Flag 0040  
                              _RB7_Flag 003F                     ?_gpio_pin_intialize 00C4  
                              _PIE1bits 0F9D                                i2u221_40 1834  
                              i2u221_41 1830                                i2u310_40 107E  
                              i2u310_41 107A                                i2u222_45 1884  
                              i2u222_47 1886                                i2u207_40 1634  
                              i2u311_40 1090                                i2u207_41 1630  
                              i2u311_41 108C                                i2u208_40 1656  
                              i2u320_40 1126                                i2u312_40 109E  
                              i2u208_41 1652                                i2u320_41 1122  
                              i2u312_41 109A                                i2u321_40 1134  
                              i2u313_40 10AC                                i2u305_40 1030  
                              i2u321_41 1130                                i2u313_41 10A8  
                              i2u305_41 102C                                i2u209_44 167A  
                              i2u209_45 1676                                i2u226_40 1A4E  
                              i2u250_40 19E0                                i2u330_40 11CC  
                              i2u322_40 1144                                i2u314_40 10BC  
                              i2u306_40 103E                                i2u226_41 1A4A  
                              i2u250_41 19DC                                i2u330_41 11C8  
                              i2u322_41 1140                                i2u314_41 10B8  
                              i2u306_41 103A                                i2u331_40 11E4  
                              i2u323_40 115C                                i2u315_40 10D4  
                              i2u307_40 1050                                i2u331_41 11E0  
                              i2u323_41 1158                                i2u315_41 10D0  
                              i2u307_41 104C                                i2u251_48 19E6  
                              i2u340_40 127A                                i2u332_40 11F2  
                              i2u324_40 116A                                i2u316_40 10E2  
                              i2u308_40 105E                                i2u251_49 19F8  
                              i2u340_41 1276                                i2u332_41 11EE  
                              i2u324_41 1166                                i2u316_41 10DE  
                              i2u308_41 105A                                i2u341_40 1288  
                              i2u333_40 1200                                i2u325_40 1178  
                              i2u317_40 10F0                                i2u309_40 1070  
                              i2u341_41 1284                                i2u333_41 11FC  
                              i2u325_41 1174                                i2u317_41 10EC  
                              i2u309_41 106C                                i2u342_40 1298  
                              i2u334_40 1210                                i2u326_40 1188  
                              i2u318_40 1100                                i2u342_41 1294  
                              i2u334_41 120C                                i2u326_41 1184  
                              i2u318_41 10FC                                i2u343_40 12B0  
                              i2u335_40 1228                                i2u327_40 11A0  
                              i2u319_40 1118                                i2u343_41 12AC  
                              i2u335_41 1224                                i2u327_41 119C  
                              i2u319_41 1114                                i2u344_40 12BE  
                              i2u336_40 1236                                i2u328_40 11AE  
                              i2u344_41 12BA                                i2u336_41 1232  
                              i2u328_41 11AA                                i2u345_40 12D0  
                              i2u337_40 1244                                i2u329_40 11BC  
                              i2u345_41 12CC                                i2u337_41 1240  
                              i2u329_41 11B8                                _PIR1bits 0F9E  
                              i2u346_40 12DE                                i2u338_40 1254  
                              i2u346_41 12DA                                i2u338_41 1250  
                              i2u339_40 126C                                i2u339_41 1268  
                     _keypad_btn_values 0080                              _ADCON0bits 0FC2  
                            _ADCON1bits 0FC1                              _ADCON2bits 0FC0  
       __end_of_Timer0_Prescaler_Config 18EC                    ??_gpio_pin_intialize 00C6  
               gpio_pin_write_logic@ret 006D                             _INTCON2bits 0FF1  
                           _INTCON3bits 0FF0                               copy_data0 1900  
                             copy_data1 1920                            ??_led_toggle 005C  
                            _EECON1bits 0FA6                                __Hrparam 0000  
                              __Lrparam 0000                      _Timer0_Mode_Select 1736  
                    __end_of_led_toggle 1894                     ?_Timer0_Mode_Select 0064  
                              __ptext11 19C4                                __ptext20 1AF4  
                              __ptext12 1A2E                                __ptext21 1AF8  
                              __ptext13 1822                                __ptext22 1AFC  
                              __ptext14 1622                                __ptext23 0000  
                              __ptext15 1A88                                __ptext16 1AA2  
                              __ptext17 1ABC                                __ptext18 1AD6  
                              __ptext19 1AF0            gpio_pin_intialize@pin_config 00C4  
           _RB5_Interrupt_Handular_HIGH 0015                    ??_Timer0_Mode_Select 0066  
                              isa$xinst 0000                                int$flags 006E  
                        Timer0_Init@ret 006B                              _INTCONbits 0FF2  
              Timer0_Mode_Select@timer1 0064            __end_of_gpio_pin_write_logic 157E  
                              intlevel2 0000         gpio_pin_toggle_logic@pin_config 0053  
gpio_pin_direction_intialize@pin_config 0064                   _gpio_pin_toggle_logic 1622  
                            _TIMER0_ISR 19C4                          _port_registers 00B0  
            _RB4_Interrupt_Handular_LOW 0017                 _INT1_Interrupt_Handular 001D  
            _RB7_Interrupt_Handular_LOW 000B                       _Interrupt_Manager 0008  
                        _led_initialize 16B4                ?_Timer0_Defualt_Hundeler 0053  
                    ?_Interrupt_Manager 0053  
